
Learning.elf:     file format elf32-littlearm

Sections:
Idx Name          Size      VMA       LMA       File off  Algn
  0 .isr_vector   000000c0  08000000  08000000  00010000  2**0
                  CONTENTS, ALLOC, LOAD, READONLY, DATA
  1 .text         00001234  080000c0  080000c0  000100c0  2**2
                  CONTENTS, ALLOC, LOAD, READONLY, CODE
  2 .rodata       0000003c  080012f4  080012f4  000112f4  2**2
                  CONTENTS, ALLOC, LOAD, READONLY, DATA
  3 .ARM.extab    00000000  08001330  08001330  0002000c  2**0
                  CONTENTS
  4 .ARM          00000000  08001330  08001330  0002000c  2**0
                  CONTENTS
  5 .preinit_array 00000000  08001330  08001330  0002000c  2**0
                  CONTENTS, ALLOC, LOAD, DATA
  6 .init_array   00000004  08001330  08001330  00011330  2**2
                  CONTENTS, ALLOC, LOAD, DATA
  7 .fini_array   00000004  08001334  08001334  00011334  2**2
                  CONTENTS, ALLOC, LOAD, DATA
  8 .data         0000000c  20000000  08001338  00020000  2**2
                  CONTENTS, ALLOC, LOAD, DATA
  9 .bss          000000a0  2000000c  08001344  0002000c  2**2
                  ALLOC
 10 ._user_heap_stack 00000604  200000ac  08001344  000200ac  2**0
                  ALLOC
 11 .ARM.attributes 00000028  00000000  00000000  0002000c  2**0
                  CONTENTS, READONLY
 12 .comment      0000007b  00000000  00000000  00020034  2**0
                  CONTENTS, READONLY
 13 .debug_frame  0000006c  00000000  00000000  000200b0  2**2
                  CONTENTS, READONLY, DEBUGGING

Disassembly of section .text:

080000c0 <__do_global_dtors_aux>:
 80000c0:	b510      	push	{r4, lr}
 80000c2:	4c06      	ldr	r4, [pc, #24]	; (80000dc <__do_global_dtors_aux+0x1c>)
 80000c4:	7823      	ldrb	r3, [r4, #0]
 80000c6:	2b00      	cmp	r3, #0
 80000c8:	d107      	bne.n	80000da <__do_global_dtors_aux+0x1a>
 80000ca:	4b05      	ldr	r3, [pc, #20]	; (80000e0 <__do_global_dtors_aux+0x20>)
 80000cc:	2b00      	cmp	r3, #0
 80000ce:	d002      	beq.n	80000d6 <__do_global_dtors_aux+0x16>
 80000d0:	4804      	ldr	r0, [pc, #16]	; (80000e4 <__do_global_dtors_aux+0x24>)
 80000d2:	e000      	b.n	80000d6 <__do_global_dtors_aux+0x16>
 80000d4:	bf00      	nop
 80000d6:	2301      	movs	r3, #1
 80000d8:	7023      	strb	r3, [r4, #0]
 80000da:	bd10      	pop	{r4, pc}
 80000dc:	2000000c 	.word	0x2000000c
 80000e0:	00000000 	.word	0x00000000
 80000e4:	080012dc 	.word	0x080012dc

080000e8 <frame_dummy>:
 80000e8:	4b04      	ldr	r3, [pc, #16]	; (80000fc <frame_dummy+0x14>)
 80000ea:	b510      	push	{r4, lr}
 80000ec:	2b00      	cmp	r3, #0
 80000ee:	d003      	beq.n	80000f8 <frame_dummy+0x10>
 80000f0:	4903      	ldr	r1, [pc, #12]	; (8000100 <frame_dummy+0x18>)
 80000f2:	4804      	ldr	r0, [pc, #16]	; (8000104 <frame_dummy+0x1c>)
 80000f4:	e000      	b.n	80000f8 <frame_dummy+0x10>
 80000f6:	bf00      	nop
 80000f8:	bd10      	pop	{r4, pc}
 80000fa:	46c0      	nop			; (mov r8, r8)
 80000fc:	00000000 	.word	0x00000000
 8000100:	20000010 	.word	0x20000010
 8000104:	080012dc 	.word	0x080012dc

08000108 <__udivsi3>:
 8000108:	2200      	movs	r2, #0
 800010a:	0843      	lsrs	r3, r0, #1
 800010c:	428b      	cmp	r3, r1
 800010e:	d374      	bcc.n	80001fa <__udivsi3+0xf2>
 8000110:	0903      	lsrs	r3, r0, #4
 8000112:	428b      	cmp	r3, r1
 8000114:	d35f      	bcc.n	80001d6 <__udivsi3+0xce>
 8000116:	0a03      	lsrs	r3, r0, #8
 8000118:	428b      	cmp	r3, r1
 800011a:	d344      	bcc.n	80001a6 <__udivsi3+0x9e>
 800011c:	0b03      	lsrs	r3, r0, #12
 800011e:	428b      	cmp	r3, r1
 8000120:	d328      	bcc.n	8000174 <__udivsi3+0x6c>
 8000122:	0c03      	lsrs	r3, r0, #16
 8000124:	428b      	cmp	r3, r1
 8000126:	d30d      	bcc.n	8000144 <__udivsi3+0x3c>
 8000128:	22ff      	movs	r2, #255	; 0xff
 800012a:	0209      	lsls	r1, r1, #8
 800012c:	ba12      	rev	r2, r2
 800012e:	0c03      	lsrs	r3, r0, #16
 8000130:	428b      	cmp	r3, r1
 8000132:	d302      	bcc.n	800013a <__udivsi3+0x32>
 8000134:	1212      	asrs	r2, r2, #8
 8000136:	0209      	lsls	r1, r1, #8
 8000138:	d065      	beq.n	8000206 <__udivsi3+0xfe>
 800013a:	0b03      	lsrs	r3, r0, #12
 800013c:	428b      	cmp	r3, r1
 800013e:	d319      	bcc.n	8000174 <__udivsi3+0x6c>
 8000140:	e000      	b.n	8000144 <__udivsi3+0x3c>
 8000142:	0a09      	lsrs	r1, r1, #8
 8000144:	0bc3      	lsrs	r3, r0, #15
 8000146:	428b      	cmp	r3, r1
 8000148:	d301      	bcc.n	800014e <__udivsi3+0x46>
 800014a:	03cb      	lsls	r3, r1, #15
 800014c:	1ac0      	subs	r0, r0, r3
 800014e:	4152      	adcs	r2, r2
 8000150:	0b83      	lsrs	r3, r0, #14
 8000152:	428b      	cmp	r3, r1
 8000154:	d301      	bcc.n	800015a <__udivsi3+0x52>
 8000156:	038b      	lsls	r3, r1, #14
 8000158:	1ac0      	subs	r0, r0, r3
 800015a:	4152      	adcs	r2, r2
 800015c:	0b43      	lsrs	r3, r0, #13
 800015e:	428b      	cmp	r3, r1
 8000160:	d301      	bcc.n	8000166 <__udivsi3+0x5e>
 8000162:	034b      	lsls	r3, r1, #13
 8000164:	1ac0      	subs	r0, r0, r3
 8000166:	4152      	adcs	r2, r2
 8000168:	0b03      	lsrs	r3, r0, #12
 800016a:	428b      	cmp	r3, r1
 800016c:	d301      	bcc.n	8000172 <__udivsi3+0x6a>
 800016e:	030b      	lsls	r3, r1, #12
 8000170:	1ac0      	subs	r0, r0, r3
 8000172:	4152      	adcs	r2, r2
 8000174:	0ac3      	lsrs	r3, r0, #11
 8000176:	428b      	cmp	r3, r1
 8000178:	d301      	bcc.n	800017e <__udivsi3+0x76>
 800017a:	02cb      	lsls	r3, r1, #11
 800017c:	1ac0      	subs	r0, r0, r3
 800017e:	4152      	adcs	r2, r2
 8000180:	0a83      	lsrs	r3, r0, #10
 8000182:	428b      	cmp	r3, r1
 8000184:	d301      	bcc.n	800018a <__udivsi3+0x82>
 8000186:	028b      	lsls	r3, r1, #10
 8000188:	1ac0      	subs	r0, r0, r3
 800018a:	4152      	adcs	r2, r2
 800018c:	0a43      	lsrs	r3, r0, #9
 800018e:	428b      	cmp	r3, r1
 8000190:	d301      	bcc.n	8000196 <__udivsi3+0x8e>
 8000192:	024b      	lsls	r3, r1, #9
 8000194:	1ac0      	subs	r0, r0, r3
 8000196:	4152      	adcs	r2, r2
 8000198:	0a03      	lsrs	r3, r0, #8
 800019a:	428b      	cmp	r3, r1
 800019c:	d301      	bcc.n	80001a2 <__udivsi3+0x9a>
 800019e:	020b      	lsls	r3, r1, #8
 80001a0:	1ac0      	subs	r0, r0, r3
 80001a2:	4152      	adcs	r2, r2
 80001a4:	d2cd      	bcs.n	8000142 <__udivsi3+0x3a>
 80001a6:	09c3      	lsrs	r3, r0, #7
 80001a8:	428b      	cmp	r3, r1
 80001aa:	d301      	bcc.n	80001b0 <__udivsi3+0xa8>
 80001ac:	01cb      	lsls	r3, r1, #7
 80001ae:	1ac0      	subs	r0, r0, r3
 80001b0:	4152      	adcs	r2, r2
 80001b2:	0983      	lsrs	r3, r0, #6
 80001b4:	428b      	cmp	r3, r1
 80001b6:	d301      	bcc.n	80001bc <__udivsi3+0xb4>
 80001b8:	018b      	lsls	r3, r1, #6
 80001ba:	1ac0      	subs	r0, r0, r3
 80001bc:	4152      	adcs	r2, r2
 80001be:	0943      	lsrs	r3, r0, #5
 80001c0:	428b      	cmp	r3, r1
 80001c2:	d301      	bcc.n	80001c8 <__udivsi3+0xc0>
 80001c4:	014b      	lsls	r3, r1, #5
 80001c6:	1ac0      	subs	r0, r0, r3
 80001c8:	4152      	adcs	r2, r2
 80001ca:	0903      	lsrs	r3, r0, #4
 80001cc:	428b      	cmp	r3, r1
 80001ce:	d301      	bcc.n	80001d4 <__udivsi3+0xcc>
 80001d0:	010b      	lsls	r3, r1, #4
 80001d2:	1ac0      	subs	r0, r0, r3
 80001d4:	4152      	adcs	r2, r2
 80001d6:	08c3      	lsrs	r3, r0, #3
 80001d8:	428b      	cmp	r3, r1
 80001da:	d301      	bcc.n	80001e0 <__udivsi3+0xd8>
 80001dc:	00cb      	lsls	r3, r1, #3
 80001de:	1ac0      	subs	r0, r0, r3
 80001e0:	4152      	adcs	r2, r2
 80001e2:	0883      	lsrs	r3, r0, #2
 80001e4:	428b      	cmp	r3, r1
 80001e6:	d301      	bcc.n	80001ec <__udivsi3+0xe4>
 80001e8:	008b      	lsls	r3, r1, #2
 80001ea:	1ac0      	subs	r0, r0, r3
 80001ec:	4152      	adcs	r2, r2
 80001ee:	0843      	lsrs	r3, r0, #1
 80001f0:	428b      	cmp	r3, r1
 80001f2:	d301      	bcc.n	80001f8 <__udivsi3+0xf0>
 80001f4:	004b      	lsls	r3, r1, #1
 80001f6:	1ac0      	subs	r0, r0, r3
 80001f8:	4152      	adcs	r2, r2
 80001fa:	1a41      	subs	r1, r0, r1
 80001fc:	d200      	bcs.n	8000200 <__udivsi3+0xf8>
 80001fe:	4601      	mov	r1, r0
 8000200:	4152      	adcs	r2, r2
 8000202:	4610      	mov	r0, r2
 8000204:	4770      	bx	lr
 8000206:	e7ff      	b.n	8000208 <__udivsi3+0x100>
 8000208:	b501      	push	{r0, lr}
 800020a:	2000      	movs	r0, #0
 800020c:	f000 f806 	bl	800021c <__aeabi_idiv0>
 8000210:	bd02      	pop	{r1, pc}
 8000212:	46c0      	nop			; (mov r8, r8)

08000214 <__aeabi_uidivmod>:
 8000214:	2900      	cmp	r1, #0
 8000216:	d0f7      	beq.n	8000208 <__udivsi3+0x100>
 8000218:	e776      	b.n	8000108 <__udivsi3>
 800021a:	4770      	bx	lr

0800021c <__aeabi_idiv0>:
 800021c:	4770      	bx	lr
 800021e:	46c0      	nop			; (mov r8, r8)

08000220 <SystemClock_Config>:
 8000220:	b500      	push	{lr}
 8000222:	b093      	sub	sp, #76	; 0x4c
 8000224:	2230      	movs	r2, #48	; 0x30
 8000226:	2100      	movs	r1, #0
 8000228:	a806      	add	r0, sp, #24
 800022a:	f001 f84f 	bl	80012cc <memset>
 800022e:	2210      	movs	r2, #16
 8000230:	2100      	movs	r1, #0
 8000232:	a801      	add	r0, sp, #4
 8000234:	f001 f84a 	bl	80012cc <memset>
 8000238:	2302      	movs	r3, #2
 800023a:	9305      	str	r3, [sp, #20]
 800023c:	3b01      	subs	r3, #1
 800023e:	9308      	str	r3, [sp, #32]
 8000240:	a805      	add	r0, sp, #20
 8000242:	330f      	adds	r3, #15
 8000244:	9309      	str	r3, [sp, #36]	; 0x24
 8000246:	f000 fa91 	bl	800076c <HAL_RCC_OscConfig>
 800024a:	2307      	movs	r3, #7
 800024c:	9301      	str	r3, [sp, #4]
 800024e:	2300      	movs	r3, #0
 8000250:	2100      	movs	r1, #0
 8000252:	a801      	add	r0, sp, #4
 8000254:	9302      	str	r3, [sp, #8]
 8000256:	9303      	str	r3, [sp, #12]
 8000258:	9304      	str	r3, [sp, #16]
 800025a:	f000 fd2b 	bl	8000cb4 <HAL_RCC_ClockConfig>
 800025e:	b013      	add	sp, #76	; 0x4c
 8000260:	bd00      	pop	{pc}
 8000262:	46c0      	nop			; (mov r8, r8)

08000264 <main>:
 8000264:	b510      	push	{r4, lr}
 8000266:	b088      	sub	sp, #32
 8000268:	f000 f910 	bl	800048c <HAL_Init>
 800026c:	f7ff ffd8 	bl	8000220 <SystemClock_Config>
 8000270:	2214      	movs	r2, #20
 8000272:	2100      	movs	r1, #0
 8000274:	a803      	add	r0, sp, #12
 8000276:	f001 f829 	bl	80012cc <memset>
 800027a:	2080      	movs	r0, #128	; 0x80
 800027c:	4b1f      	ldr	r3, [pc, #124]	; (80002fc <main+0x98>)
 800027e:	03c0      	lsls	r0, r0, #15
 8000280:	6959      	ldr	r1, [r3, #20]
 8000282:	2400      	movs	r4, #0
 8000284:	4301      	orrs	r1, r0
 8000286:	6159      	str	r1, [r3, #20]
 8000288:	2180      	movs	r1, #128	; 0x80
 800028a:	695a      	ldr	r2, [r3, #20]
 800028c:	0289      	lsls	r1, r1, #10
 800028e:	4002      	ands	r2, r0
 8000290:	2090      	movs	r0, #144	; 0x90
 8000292:	9201      	str	r2, [sp, #4]
 8000294:	9a01      	ldr	r2, [sp, #4]
 8000296:	695a      	ldr	r2, [r3, #20]
 8000298:	05c0      	lsls	r0, r0, #23
 800029a:	430a      	orrs	r2, r1
 800029c:	615a      	str	r2, [r3, #20]
 800029e:	695b      	ldr	r3, [r3, #20]
 80002a0:	2200      	movs	r2, #0
 80002a2:	400b      	ands	r3, r1
 80002a4:	9302      	str	r3, [sp, #8]
 80002a6:	2120      	movs	r1, #32
 80002a8:	9b02      	ldr	r3, [sp, #8]
 80002aa:	f000 fa51 	bl	8000750 <HAL_GPIO_WritePin>
 80002ae:	2320      	movs	r3, #32
 80002b0:	2090      	movs	r0, #144	; 0x90
 80002b2:	9303      	str	r3, [sp, #12]
 80002b4:	05c0      	lsls	r0, r0, #23
 80002b6:	3b1f      	subs	r3, #31
 80002b8:	a903      	add	r1, sp, #12
 80002ba:	9304      	str	r3, [sp, #16]
 80002bc:	9405      	str	r4, [sp, #20]
 80002be:	9406      	str	r4, [sp, #24]
 80002c0:	f000 f960 	bl	8000584 <HAL_GPIO_Init>
 80002c4:	480e      	ldr	r0, [pc, #56]	; (8000300 <main+0x9c>)
 80002c6:	4b0f      	ldr	r3, [pc, #60]	; (8000304 <main+0xa0>)
 80002c8:	6084      	str	r4, [r0, #8]
 80002ca:	6003      	str	r3, [r0, #0]
 80002cc:	2396      	movs	r3, #150	; 0x96
 80002ce:	021b      	lsls	r3, r3, #8
 80002d0:	6043      	str	r3, [r0, #4]
 80002d2:	230c      	movs	r3, #12
 80002d4:	60c4      	str	r4, [r0, #12]
 80002d6:	6104      	str	r4, [r0, #16]
 80002d8:	6143      	str	r3, [r0, #20]
 80002da:	6184      	str	r4, [r0, #24]
 80002dc:	61c4      	str	r4, [r0, #28]
 80002de:	6204      	str	r4, [r0, #32]
 80002e0:	6244      	str	r4, [r0, #36]	; 0x24
 80002e2:	f000 fe7b 	bl	8000fdc <HAL_UART_Init>
 80002e6:	2090      	movs	r0, #144	; 0x90
 80002e8:	2120      	movs	r1, #32
 80002ea:	05c0      	lsls	r0, r0, #23
 80002ec:	f000 fa36 	bl	800075c <HAL_GPIO_TogglePin>
 80002f0:	20fa      	movs	r0, #250	; 0xfa
 80002f2:	0080      	lsls	r0, r0, #2
 80002f4:	f000 f8ec 	bl	80004d0 <HAL_Delay>
 80002f8:	e7f5      	b.n	80002e6 <main+0x82>
 80002fa:	46c0      	nop			; (mov r8, r8)
 80002fc:	40021000 	.word	0x40021000
 8000300:	20000028 	.word	0x20000028
 8000304:	40004400 	.word	0x40004400

08000308 <HAL_MspInit>:
 8000308:	2201      	movs	r2, #1
 800030a:	4b0a      	ldr	r3, [pc, #40]	; (8000334 <HAL_MspInit+0x2c>)
 800030c:	b082      	sub	sp, #8
 800030e:	6999      	ldr	r1, [r3, #24]
 8000310:	4311      	orrs	r1, r2
 8000312:	6199      	str	r1, [r3, #24]
 8000314:	6999      	ldr	r1, [r3, #24]
 8000316:	400a      	ands	r2, r1
 8000318:	2180      	movs	r1, #128	; 0x80
 800031a:	9200      	str	r2, [sp, #0]
 800031c:	9a00      	ldr	r2, [sp, #0]
 800031e:	69da      	ldr	r2, [r3, #28]
 8000320:	0549      	lsls	r1, r1, #21
 8000322:	430a      	orrs	r2, r1
 8000324:	61da      	str	r2, [r3, #28]
 8000326:	69db      	ldr	r3, [r3, #28]
 8000328:	400b      	ands	r3, r1
 800032a:	9301      	str	r3, [sp, #4]
 800032c:	9b01      	ldr	r3, [sp, #4]
 800032e:	b002      	add	sp, #8
 8000330:	4770      	bx	lr
 8000332:	46c0      	nop			; (mov r8, r8)
 8000334:	40021000 	.word	0x40021000

08000338 <HAL_UART_MspInit>:
 8000338:	b510      	push	{r4, lr}
 800033a:	0004      	movs	r4, r0
 800033c:	b088      	sub	sp, #32
 800033e:	2214      	movs	r2, #20
 8000340:	2100      	movs	r1, #0
 8000342:	a803      	add	r0, sp, #12
 8000344:	f000 ffc2 	bl	80012cc <memset>
 8000348:	4b12      	ldr	r3, [pc, #72]	; (8000394 <HAL_UART_MspInit+0x5c>)
 800034a:	6822      	ldr	r2, [r4, #0]
 800034c:	429a      	cmp	r2, r3
 800034e:	d001      	beq.n	8000354 <HAL_UART_MspInit+0x1c>
 8000350:	b008      	add	sp, #32
 8000352:	bd10      	pop	{r4, pc}
 8000354:	2280      	movs	r2, #128	; 0x80
 8000356:	4b10      	ldr	r3, [pc, #64]	; (8000398 <HAL_UART_MspInit+0x60>)
 8000358:	0292      	lsls	r2, r2, #10
 800035a:	69d9      	ldr	r1, [r3, #28]
 800035c:	2090      	movs	r0, #144	; 0x90
 800035e:	4311      	orrs	r1, r2
 8000360:	61d9      	str	r1, [r3, #28]
 8000362:	69d9      	ldr	r1, [r3, #28]
 8000364:	05c0      	lsls	r0, r0, #23
 8000366:	4011      	ands	r1, r2
 8000368:	9101      	str	r1, [sp, #4]
 800036a:	9901      	ldr	r1, [sp, #4]
 800036c:	6959      	ldr	r1, [r3, #20]
 800036e:	4311      	orrs	r1, r2
 8000370:	6159      	str	r1, [r3, #20]
 8000372:	695b      	ldr	r3, [r3, #20]
 8000374:	a903      	add	r1, sp, #12
 8000376:	401a      	ands	r2, r3
 8000378:	9202      	str	r2, [sp, #8]
 800037a:	9b02      	ldr	r3, [sp, #8]
 800037c:	4b07      	ldr	r3, [pc, #28]	; (800039c <HAL_UART_MspInit+0x64>)
 800037e:	9303      	str	r3, [sp, #12]
 8000380:	2302      	movs	r3, #2
 8000382:	9304      	str	r3, [sp, #16]
 8000384:	3301      	adds	r3, #1
 8000386:	9306      	str	r3, [sp, #24]
 8000388:	3b02      	subs	r3, #2
 800038a:	9307      	str	r3, [sp, #28]
 800038c:	f000 f8fa 	bl	8000584 <HAL_GPIO_Init>
 8000390:	e7de      	b.n	8000350 <HAL_UART_MspInit+0x18>
 8000392:	46c0      	nop			; (mov r8, r8)
 8000394:	40004400 	.word	0x40004400
 8000398:	40021000 	.word	0x40021000
 800039c:	00008004 	.word	0x00008004

080003a0 <NMI_Handler>:
 80003a0:	4770      	bx	lr
 80003a2:	46c0      	nop			; (mov r8, r8)

080003a4 <HardFault_Handler>:
 80003a4:	e7fe      	b.n	80003a4 <HardFault_Handler>
 80003a6:	46c0      	nop			; (mov r8, r8)

080003a8 <SVC_Handler>:
 80003a8:	4770      	bx	lr
 80003aa:	46c0      	nop			; (mov r8, r8)

080003ac <PendSV_Handler>:
 80003ac:	4770      	bx	lr
 80003ae:	46c0      	nop			; (mov r8, r8)

080003b0 <SysTick_Handler>:
 80003b0:	b510      	push	{r4, lr}
 80003b2:	f000 f87b 	bl	80004ac <HAL_IncTick>
 80003b6:	bd10      	pop	{r4, pc}

080003b8 <SystemInit>:
 80003b8:	4770      	bx	lr
 80003ba:	46c0      	nop			; (mov r8, r8)

080003bc <Reset_Handler>:
 80003bc:	4813      	ldr	r0, [pc, #76]	; (800040c <LoopForever+0x2>)
 80003be:	4685      	mov	sp, r0
 80003c0:	4813      	ldr	r0, [pc, #76]	; (8000410 <LoopForever+0x6>)
 80003c2:	6801      	ldr	r1, [r0, #0]
 80003c4:	0e09      	lsrs	r1, r1, #24
 80003c6:	4a13      	ldr	r2, [pc, #76]	; (8000414 <LoopForever+0xa>)
 80003c8:	4291      	cmp	r1, r2
 80003ca:	d105      	bne.n	80003d8 <ApplicationStart>
 80003cc:	4812      	ldr	r0, [pc, #72]	; (8000418 <LoopForever+0xe>)
 80003ce:	4913      	ldr	r1, [pc, #76]	; (800041c <LoopForever+0x12>)
 80003d0:	6001      	str	r1, [r0, #0]
 80003d2:	4813      	ldr	r0, [pc, #76]	; (8000420 <LoopForever+0x16>)
 80003d4:	4913      	ldr	r1, [pc, #76]	; (8000424 <LoopForever+0x1a>)
 80003d6:	6001      	str	r1, [r0, #0]

080003d8 <ApplicationStart>:
 80003d8:	4813      	ldr	r0, [pc, #76]	; (8000428 <LoopForever+0x1e>)
 80003da:	4914      	ldr	r1, [pc, #80]	; (800042c <LoopForever+0x22>)
 80003dc:	4a14      	ldr	r2, [pc, #80]	; (8000430 <LoopForever+0x26>)
 80003de:	2300      	movs	r3, #0
 80003e0:	e002      	b.n	80003e8 <LoopCopyDataInit>

080003e2 <CopyDataInit>:
 80003e2:	58d4      	ldr	r4, [r2, r3]
 80003e4:	50c4      	str	r4, [r0, r3]
 80003e6:	3304      	adds	r3, #4

080003e8 <LoopCopyDataInit>:
 80003e8:	18c4      	adds	r4, r0, r3
 80003ea:	428c      	cmp	r4, r1
 80003ec:	d3f9      	bcc.n	80003e2 <CopyDataInit>
 80003ee:	4a11      	ldr	r2, [pc, #68]	; (8000434 <LoopForever+0x2a>)
 80003f0:	4c11      	ldr	r4, [pc, #68]	; (8000438 <LoopForever+0x2e>)
 80003f2:	2300      	movs	r3, #0
 80003f4:	e001      	b.n	80003fa <LoopFillZerobss>

080003f6 <FillZerobss>:
 80003f6:	6013      	str	r3, [r2, #0]
 80003f8:	3204      	adds	r2, #4

080003fa <LoopFillZerobss>:
 80003fa:	42a2      	cmp	r2, r4
 80003fc:	d3fb      	bcc.n	80003f6 <FillZerobss>
 80003fe:	f7ff ffdb 	bl	80003b8 <SystemInit>
 8000402:	f000 ff3f 	bl	8001284 <__libc_init_array>
 8000406:	f7ff ff2d 	bl	8000264 <main>

0800040a <LoopForever>:
 800040a:	e7fe      	b.n	800040a <LoopForever>
 800040c:	20001800 	.word	0x20001800
 8000410:	00000004 	.word	0x00000004
 8000414:	0000001f 	.word	0x0000001f
 8000418:	40021018 	.word	0x40021018
 800041c:	00000001 	.word	0x00000001
 8000420:	40010000 	.word	0x40010000
 8000424:	00000000 	.word	0x00000000
 8000428:	20000000 	.word	0x20000000
 800042c:	2000000c 	.word	0x2000000c
 8000430:	08001338 	.word	0x08001338
 8000434:	2000000c 	.word	0x2000000c
 8000438:	200000ac 	.word	0x200000ac

0800043c <ADC1_IRQHandler>:
 800043c:	e7fe      	b.n	800043c <ADC1_IRQHandler>
	...

08000440 <HAL_InitTick>:
 8000440:	b510      	push	{r4, lr}
 8000442:	0004      	movs	r4, r0
 8000444:	20fa      	movs	r0, #250	; 0xfa
 8000446:	4b0e      	ldr	r3, [pc, #56]	; (8000480 <HAL_InitTick+0x40>)
 8000448:	0080      	lsls	r0, r0, #2
 800044a:	7819      	ldrb	r1, [r3, #0]
 800044c:	f7ff fe5c 	bl	8000108 <__udivsi3>
 8000450:	4b0c      	ldr	r3, [pc, #48]	; (8000484 <HAL_InitTick+0x44>)
 8000452:	0001      	movs	r1, r0
 8000454:	6818      	ldr	r0, [r3, #0]
 8000456:	f7ff fe57 	bl	8000108 <__udivsi3>
 800045a:	f000 f877 	bl	800054c <HAL_SYSTICK_Config>
 800045e:	2301      	movs	r3, #1
 8000460:	2800      	cmp	r0, #0
 8000462:	d101      	bne.n	8000468 <HAL_InitTick+0x28>
 8000464:	2c03      	cmp	r4, #3
 8000466:	d901      	bls.n	800046c <HAL_InitTick+0x2c>
 8000468:	0018      	movs	r0, r3
 800046a:	bd10      	pop	{r4, pc}
 800046c:	2200      	movs	r2, #0
 800046e:	0021      	movs	r1, r4
 8000470:	3801      	subs	r0, #1
 8000472:	f000 f83f 	bl	80004f4 <HAL_NVIC_SetPriority>
 8000476:	4b04      	ldr	r3, [pc, #16]	; (8000488 <HAL_InitTick+0x48>)
 8000478:	601c      	str	r4, [r3, #0]
 800047a:	2300      	movs	r3, #0
 800047c:	e7f4      	b.n	8000468 <HAL_InitTick+0x28>
 800047e:	46c0      	nop			; (mov r8, r8)
 8000480:	20000004 	.word	0x20000004
 8000484:	20000000 	.word	0x20000000
 8000488:	20000008 	.word	0x20000008

0800048c <HAL_Init>:
 800048c:	2110      	movs	r1, #16
 800048e:	4a06      	ldr	r2, [pc, #24]	; (80004a8 <HAL_Init+0x1c>)
 8000490:	b510      	push	{r4, lr}
 8000492:	6813      	ldr	r3, [r2, #0]
 8000494:	2000      	movs	r0, #0
 8000496:	430b      	orrs	r3, r1
 8000498:	6013      	str	r3, [r2, #0]
 800049a:	f7ff ffd1 	bl	8000440 <HAL_InitTick>
 800049e:	f7ff ff33 	bl	8000308 <HAL_MspInit>
 80004a2:	2000      	movs	r0, #0
 80004a4:	bd10      	pop	{r4, pc}
 80004a6:	46c0      	nop			; (mov r8, r8)
 80004a8:	40022000 	.word	0x40022000

080004ac <HAL_IncTick>:
 80004ac:	4a03      	ldr	r2, [pc, #12]	; (80004bc <HAL_IncTick+0x10>)
 80004ae:	4b04      	ldr	r3, [pc, #16]	; (80004c0 <HAL_IncTick+0x14>)
 80004b0:	6811      	ldr	r1, [r2, #0]
 80004b2:	781b      	ldrb	r3, [r3, #0]
 80004b4:	185b      	adds	r3, r3, r1
 80004b6:	6013      	str	r3, [r2, #0]
 80004b8:	4770      	bx	lr
 80004ba:	46c0      	nop			; (mov r8, r8)
 80004bc:	200000a8 	.word	0x200000a8
 80004c0:	20000004 	.word	0x20000004

080004c4 <HAL_GetTick>:
 80004c4:	4b01      	ldr	r3, [pc, #4]	; (80004cc <HAL_GetTick+0x8>)
 80004c6:	6818      	ldr	r0, [r3, #0]
 80004c8:	4770      	bx	lr
 80004ca:	46c0      	nop			; (mov r8, r8)
 80004cc:	200000a8 	.word	0x200000a8

080004d0 <HAL_Delay>:
 80004d0:	b570      	push	{r4, r5, r6, lr}
 80004d2:	0004      	movs	r4, r0
 80004d4:	f7ff fff6 	bl	80004c4 <HAL_GetTick>
 80004d8:	0005      	movs	r5, r0
 80004da:	1c63      	adds	r3, r4, #1
 80004dc:	d002      	beq.n	80004e4 <HAL_Delay+0x14>
 80004de:	4b04      	ldr	r3, [pc, #16]	; (80004f0 <HAL_Delay+0x20>)
 80004e0:	781b      	ldrb	r3, [r3, #0]
 80004e2:	18e4      	adds	r4, r4, r3
 80004e4:	f7ff ffee 	bl	80004c4 <HAL_GetTick>
 80004e8:	1b40      	subs	r0, r0, r5
 80004ea:	42a0      	cmp	r0, r4
 80004ec:	d3fa      	bcc.n	80004e4 <HAL_Delay+0x14>
 80004ee:	bd70      	pop	{r4, r5, r6, pc}
 80004f0:	20000004 	.word	0x20000004

080004f4 <HAL_NVIC_SetPriority>:
 80004f4:	22ff      	movs	r2, #255	; 0xff
 80004f6:	2303      	movs	r3, #3
 80004f8:	b530      	push	{r4, r5, lr}
 80004fa:	0014      	movs	r4, r2
 80004fc:	b2c5      	uxtb	r5, r0
 80004fe:	402b      	ands	r3, r5
 8000500:	00db      	lsls	r3, r3, #3
 8000502:	409c      	lsls	r4, r3
 8000504:	0189      	lsls	r1, r1, #6
 8000506:	400a      	ands	r2, r1
 8000508:	43e4      	mvns	r4, r4
 800050a:	409a      	lsls	r2, r3
 800050c:	2800      	cmp	r0, #0
 800050e:	db0b      	blt.n	8000528 <HAL_NVIC_SetPriority+0x34>
 8000510:	4b0c      	ldr	r3, [pc, #48]	; (8000544 <HAL_NVIC_SetPriority+0x50>)
 8000512:	0880      	lsrs	r0, r0, #2
 8000514:	469c      	mov	ip, r3
 8000516:	23c0      	movs	r3, #192	; 0xc0
 8000518:	0080      	lsls	r0, r0, #2
 800051a:	4460      	add	r0, ip
 800051c:	009b      	lsls	r3, r3, #2
 800051e:	58c1      	ldr	r1, [r0, r3]
 8000520:	400c      	ands	r4, r1
 8000522:	4322      	orrs	r2, r4
 8000524:	50c2      	str	r2, [r0, r3]
 8000526:	bd30      	pop	{r4, r5, pc}
 8000528:	230f      	movs	r3, #15
 800052a:	4907      	ldr	r1, [pc, #28]	; (8000548 <HAL_NVIC_SetPriority+0x54>)
 800052c:	402b      	ands	r3, r5
 800052e:	468c      	mov	ip, r1
 8000530:	3b08      	subs	r3, #8
 8000532:	089b      	lsrs	r3, r3, #2
 8000534:	009b      	lsls	r3, r3, #2
 8000536:	4463      	add	r3, ip
 8000538:	69d9      	ldr	r1, [r3, #28]
 800053a:	400c      	ands	r4, r1
 800053c:	4322      	orrs	r2, r4
 800053e:	61da      	str	r2, [r3, #28]
 8000540:	e7f1      	b.n	8000526 <HAL_NVIC_SetPriority+0x32>
 8000542:	46c0      	nop			; (mov r8, r8)
 8000544:	e000e100 	.word	0xe000e100
 8000548:	e000ed00 	.word	0xe000ed00

0800054c <HAL_SYSTICK_Config>:
 800054c:	4a0a      	ldr	r2, [pc, #40]	; (8000578 <HAL_SYSTICK_Config+0x2c>)
 800054e:	1e43      	subs	r3, r0, #1
 8000550:	2001      	movs	r0, #1
 8000552:	4293      	cmp	r3, r2
 8000554:	d80e      	bhi.n	8000574 <HAL_SYSTICK_Config+0x28>
 8000556:	21c0      	movs	r1, #192	; 0xc0
 8000558:	4a08      	ldr	r2, [pc, #32]	; (800057c <HAL_SYSTICK_Config+0x30>)
 800055a:	4809      	ldr	r0, [pc, #36]	; (8000580 <HAL_SYSTICK_Config+0x34>)
 800055c:	6053      	str	r3, [r2, #4]
 800055e:	6a03      	ldr	r3, [r0, #32]
 8000560:	0609      	lsls	r1, r1, #24
 8000562:	021b      	lsls	r3, r3, #8
 8000564:	0a1b      	lsrs	r3, r3, #8
 8000566:	430b      	orrs	r3, r1
 8000568:	6203      	str	r3, [r0, #32]
 800056a:	2300      	movs	r3, #0
 800056c:	2000      	movs	r0, #0
 800056e:	6093      	str	r3, [r2, #8]
 8000570:	3307      	adds	r3, #7
 8000572:	6013      	str	r3, [r2, #0]
 8000574:	4770      	bx	lr
 8000576:	46c0      	nop			; (mov r8, r8)
 8000578:	00ffffff 	.word	0x00ffffff
 800057c:	e000e010 	.word	0xe000e010
 8000580:	e000ed00 	.word	0xe000ed00

08000584 <HAL_GPIO_Init>:
 8000584:	b5f0      	push	{r4, r5, r6, r7, lr}
 8000586:	464e      	mov	r6, r9
 8000588:	46de      	mov	lr, fp
 800058a:	4657      	mov	r7, sl
 800058c:	4645      	mov	r5, r8
 800058e:	b5e0      	push	{r5, r6, r7, lr}
 8000590:	4689      	mov	r9, r1
 8000592:	6809      	ldr	r1, [r1, #0]
 8000594:	b085      	sub	sp, #20
 8000596:	2900      	cmp	r1, #0
 8000598:	d079      	beq.n	800068e <HAL_GPIO_Init+0x10a>
 800059a:	4b68      	ldr	r3, [pc, #416]	; (800073c <HAL_GPIO_Init+0x1b8>)
 800059c:	2200      	movs	r2, #0
 800059e:	469b      	mov	fp, r3
 80005a0:	4b67      	ldr	r3, [pc, #412]	; (8000740 <HAL_GPIO_Init+0x1bc>)
 80005a2:	468a      	mov	sl, r1
 80005a4:	4698      	mov	r8, r3
 80005a6:	2501      	movs	r5, #1
 80005a8:	4654      	mov	r4, sl
 80005aa:	4095      	lsls	r5, r2
 80005ac:	402c      	ands	r4, r5
 80005ae:	9400      	str	r4, [sp, #0]
 80005b0:	d069      	beq.n	8000686 <HAL_GPIO_Init+0x102>
 80005b2:	464b      	mov	r3, r9
 80005b4:	6859      	ldr	r1, [r3, #4]
 80005b6:	2310      	movs	r3, #16
 80005b8:	000f      	movs	r7, r1
 80005ba:	439f      	bics	r7, r3
 80005bc:	9701      	str	r7, [sp, #4]
 80005be:	2f02      	cmp	r7, #2
 80005c0:	d06c      	beq.n	800069c <HAL_GPIO_Init+0x118>
 80005c2:	6803      	ldr	r3, [r0, #0]
 80005c4:	0056      	lsls	r6, r2, #1
 80005c6:	469c      	mov	ip, r3
 80005c8:	2303      	movs	r3, #3
 80005ca:	40b3      	lsls	r3, r6
 80005cc:	4664      	mov	r4, ip
 80005ce:	43db      	mvns	r3, r3
 80005d0:	401c      	ands	r4, r3
 80005d2:	0027      	movs	r7, r4
 80005d4:	2403      	movs	r4, #3
 80005d6:	400c      	ands	r4, r1
 80005d8:	40b4      	lsls	r4, r6
 80005da:	46a4      	mov	ip, r4
 80005dc:	003c      	movs	r4, r7
 80005de:	4667      	mov	r7, ip
 80005e0:	433c      	orrs	r4, r7
 80005e2:	9f01      	ldr	r7, [sp, #4]
 80005e4:	6004      	str	r4, [r0, #0]
 80005e6:	3f01      	subs	r7, #1
 80005e8:	2f01      	cmp	r7, #1
 80005ea:	d800      	bhi.n	80005ee <HAL_GPIO_Init+0x6a>
 80005ec:	e073      	b.n	80006d6 <HAL_GPIO_Init+0x152>
 80005ee:	68c5      	ldr	r5, [r0, #12]
 80005f0:	402b      	ands	r3, r5
 80005f2:	464d      	mov	r5, r9
 80005f4:	68ad      	ldr	r5, [r5, #8]
 80005f6:	40b5      	lsls	r5, r6
 80005f8:	432b      	orrs	r3, r5
 80005fa:	60c3      	str	r3, [r0, #12]
 80005fc:	2380      	movs	r3, #128	; 0x80
 80005fe:	055b      	lsls	r3, r3, #21
 8000600:	4219      	tst	r1, r3
 8000602:	d040      	beq.n	8000686 <HAL_GPIO_Init+0x102>
 8000604:	465b      	mov	r3, fp
 8000606:	2401      	movs	r4, #1
 8000608:	465d      	mov	r5, fp
 800060a:	2603      	movs	r6, #3
 800060c:	270f      	movs	r7, #15
 800060e:	699b      	ldr	r3, [r3, #24]
 8000610:	4016      	ands	r6, r2
 8000612:	4323      	orrs	r3, r4
 8000614:	61ab      	str	r3, [r5, #24]
 8000616:	69ab      	ldr	r3, [r5, #24]
 8000618:	00b6      	lsls	r6, r6, #2
 800061a:	4023      	ands	r3, r4
 800061c:	4c49      	ldr	r4, [pc, #292]	; (8000744 <HAL_GPIO_Init+0x1c0>)
 800061e:	40b7      	lsls	r7, r6
 8000620:	46a4      	mov	ip, r4
 8000622:	2490      	movs	r4, #144	; 0x90
 8000624:	9303      	str	r3, [sp, #12]
 8000626:	9b03      	ldr	r3, [sp, #12]
 8000628:	0893      	lsrs	r3, r2, #2
 800062a:	009b      	lsls	r3, r3, #2
 800062c:	4463      	add	r3, ip
 800062e:	689d      	ldr	r5, [r3, #8]
 8000630:	05e4      	lsls	r4, r4, #23
 8000632:	43bd      	bics	r5, r7
 8000634:	42a0      	cmp	r0, r4
 8000636:	d00a      	beq.n	800064e <HAL_GPIO_Init+0xca>
 8000638:	4f43      	ldr	r7, [pc, #268]	; (8000748 <HAL_GPIO_Init+0x1c4>)
 800063a:	42b8      	cmp	r0, r7
 800063c:	d100      	bne.n	8000640 <HAL_GPIO_Init+0xbc>
 800063e:	e078      	b.n	8000732 <HAL_GPIO_Init+0x1ae>
 8000640:	4f42      	ldr	r7, [pc, #264]	; (800074c <HAL_GPIO_Init+0x1c8>)
 8000642:	42b8      	cmp	r0, r7
 8000644:	d100      	bne.n	8000648 <HAL_GPIO_Init+0xc4>
 8000646:	e070      	b.n	800072a <HAL_GPIO_Init+0x1a6>
 8000648:	2705      	movs	r7, #5
 800064a:	40b7      	lsls	r7, r6
 800064c:	433d      	orrs	r5, r7
 800064e:	609d      	str	r5, [r3, #8]
 8000650:	4643      	mov	r3, r8
 8000652:	9c00      	ldr	r4, [sp, #0]
 8000654:	681b      	ldr	r3, [r3, #0]
 8000656:	43e5      	mvns	r5, r4
 8000658:	03cc      	lsls	r4, r1, #15
 800065a:	d44e      	bmi.n	80006fa <HAL_GPIO_Init+0x176>
 800065c:	4644      	mov	r4, r8
 800065e:	402b      	ands	r3, r5
 8000660:	6023      	str	r3, [r4, #0]
 8000662:	6863      	ldr	r3, [r4, #4]
 8000664:	038c      	lsls	r4, r1, #14
 8000666:	d44f      	bmi.n	8000708 <HAL_GPIO_Init+0x184>
 8000668:	4644      	mov	r4, r8
 800066a:	402b      	ands	r3, r5
 800066c:	6063      	str	r3, [r4, #4]
 800066e:	68a3      	ldr	r3, [r4, #8]
 8000670:	02cc      	lsls	r4, r1, #11
 8000672:	d450      	bmi.n	8000716 <HAL_GPIO_Init+0x192>
 8000674:	4644      	mov	r4, r8
 8000676:	402b      	ands	r3, r5
 8000678:	60a3      	str	r3, [r4, #8]
 800067a:	68e3      	ldr	r3, [r4, #12]
 800067c:	0289      	lsls	r1, r1, #10
 800067e:	d451      	bmi.n	8000724 <HAL_GPIO_Init+0x1a0>
 8000680:	402b      	ands	r3, r5
 8000682:	4641      	mov	r1, r8
 8000684:	60cb      	str	r3, [r1, #12]
 8000686:	4653      	mov	r3, sl
 8000688:	3201      	adds	r2, #1
 800068a:	40d3      	lsrs	r3, r2
 800068c:	d18b      	bne.n	80005a6 <HAL_GPIO_Init+0x22>
 800068e:	b005      	add	sp, #20
 8000690:	bc3c      	pop	{r2, r3, r4, r5}
 8000692:	4690      	mov	r8, r2
 8000694:	4699      	mov	r9, r3
 8000696:	46a2      	mov	sl, r4
 8000698:	46ab      	mov	fp, r5
 800069a:	bdf0      	pop	{r4, r5, r6, r7, pc}
 800069c:	2607      	movs	r6, #7
 800069e:	240f      	movs	r4, #15
 80006a0:	4016      	ands	r6, r2
 80006a2:	00b6      	lsls	r6, r6, #2
 80006a4:	40b4      	lsls	r4, r6
 80006a6:	08d3      	lsrs	r3, r2, #3
 80006a8:	009b      	lsls	r3, r3, #2
 80006aa:	18c3      	adds	r3, r0, r3
 80006ac:	6a1f      	ldr	r7, [r3, #32]
 80006ae:	43a7      	bics	r7, r4
 80006b0:	464c      	mov	r4, r9
 80006b2:	6924      	ldr	r4, [r4, #16]
 80006b4:	40b4      	lsls	r4, r6
 80006b6:	0026      	movs	r6, r4
 80006b8:	433e      	orrs	r6, r7
 80006ba:	621e      	str	r6, [r3, #32]
 80006bc:	2303      	movs	r3, #3
 80006be:	0056      	lsls	r6, r2, #1
 80006c0:	40b3      	lsls	r3, r6
 80006c2:	43db      	mvns	r3, r3
 80006c4:	6807      	ldr	r7, [r0, #0]
 80006c6:	401f      	ands	r7, r3
 80006c8:	46bc      	mov	ip, r7
 80006ca:	2703      	movs	r7, #3
 80006cc:	400f      	ands	r7, r1
 80006ce:	40b7      	lsls	r7, r6
 80006d0:	4664      	mov	r4, ip
 80006d2:	4327      	orrs	r7, r4
 80006d4:	6007      	str	r7, [r0, #0]
 80006d6:	6887      	ldr	r7, [r0, #8]
 80006d8:	464c      	mov	r4, r9
 80006da:	401f      	ands	r7, r3
 80006dc:	46bc      	mov	ip, r7
 80006de:	68e7      	ldr	r7, [r4, #12]
 80006e0:	4664      	mov	r4, ip
 80006e2:	40b7      	lsls	r7, r6
 80006e4:	4327      	orrs	r7, r4
 80006e6:	2401      	movs	r4, #1
 80006e8:	6087      	str	r7, [r0, #8]
 80006ea:	6847      	ldr	r7, [r0, #4]
 80006ec:	43af      	bics	r7, r5
 80006ee:	090d      	lsrs	r5, r1, #4
 80006f0:	4025      	ands	r5, r4
 80006f2:	4095      	lsls	r5, r2
 80006f4:	433d      	orrs	r5, r7
 80006f6:	6045      	str	r5, [r0, #4]
 80006f8:	e779      	b.n	80005ee <HAL_GPIO_Init+0x6a>
 80006fa:	9c00      	ldr	r4, [sp, #0]
 80006fc:	4323      	orrs	r3, r4
 80006fe:	4644      	mov	r4, r8
 8000700:	6023      	str	r3, [r4, #0]
 8000702:	6863      	ldr	r3, [r4, #4]
 8000704:	038c      	lsls	r4, r1, #14
 8000706:	d5af      	bpl.n	8000668 <HAL_GPIO_Init+0xe4>
 8000708:	9c00      	ldr	r4, [sp, #0]
 800070a:	4323      	orrs	r3, r4
 800070c:	4644      	mov	r4, r8
 800070e:	6063      	str	r3, [r4, #4]
 8000710:	68a3      	ldr	r3, [r4, #8]
 8000712:	02cc      	lsls	r4, r1, #11
 8000714:	d5ae      	bpl.n	8000674 <HAL_GPIO_Init+0xf0>
 8000716:	9c00      	ldr	r4, [sp, #0]
 8000718:	4323      	orrs	r3, r4
 800071a:	4644      	mov	r4, r8
 800071c:	60a3      	str	r3, [r4, #8]
 800071e:	68e3      	ldr	r3, [r4, #12]
 8000720:	0289      	lsls	r1, r1, #10
 8000722:	d5ad      	bpl.n	8000680 <HAL_GPIO_Init+0xfc>
 8000724:	9900      	ldr	r1, [sp, #0]
 8000726:	430b      	orrs	r3, r1
 8000728:	e7ab      	b.n	8000682 <HAL_GPIO_Init+0xfe>
 800072a:	2702      	movs	r7, #2
 800072c:	40b7      	lsls	r7, r6
 800072e:	433d      	orrs	r5, r7
 8000730:	e78d      	b.n	800064e <HAL_GPIO_Init+0xca>
 8000732:	2401      	movs	r4, #1
 8000734:	40b4      	lsls	r4, r6
 8000736:	4325      	orrs	r5, r4
 8000738:	e789      	b.n	800064e <HAL_GPIO_Init+0xca>
 800073a:	46c0      	nop			; (mov r8, r8)
 800073c:	40021000 	.word	0x40021000
 8000740:	40010400 	.word	0x40010400
 8000744:	40010000 	.word	0x40010000
 8000748:	48000400 	.word	0x48000400
 800074c:	48000800 	.word	0x48000800

08000750 <HAL_GPIO_WritePin>:
 8000750:	2a00      	cmp	r2, #0
 8000752:	d101      	bne.n	8000758 <HAL_GPIO_WritePin+0x8>
 8000754:	6281      	str	r1, [r0, #40]	; 0x28
 8000756:	4770      	bx	lr
 8000758:	6181      	str	r1, [r0, #24]
 800075a:	e7fc      	b.n	8000756 <HAL_GPIO_WritePin+0x6>

0800075c <HAL_GPIO_TogglePin>:
 800075c:	6943      	ldr	r3, [r0, #20]
 800075e:	4219      	tst	r1, r3
 8000760:	d101      	bne.n	8000766 <HAL_GPIO_TogglePin+0xa>
 8000762:	6181      	str	r1, [r0, #24]
 8000764:	4770      	bx	lr
 8000766:	0409      	lsls	r1, r1, #16
 8000768:	6181      	str	r1, [r0, #24]
 800076a:	e7fb      	b.n	8000764 <HAL_GPIO_TogglePin+0x8>

0800076c <HAL_RCC_OscConfig>:
 800076c:	b5f0      	push	{r4, r5, r6, r7, lr}
 800076e:	46ce      	mov	lr, r9
 8000770:	4647      	mov	r7, r8
 8000772:	b580      	push	{r7, lr}
 8000774:	0004      	movs	r4, r0
 8000776:	b083      	sub	sp, #12
 8000778:	2800      	cmp	r0, #0
 800077a:	d100      	bne.n	800077e <HAL_RCC_OscConfig+0x12>
 800077c:	e0f6      	b.n	800096c <HAL_RCC_OscConfig+0x200>
 800077e:	6803      	ldr	r3, [r0, #0]
 8000780:	07da      	lsls	r2, r3, #31
 8000782:	d535      	bpl.n	80007f0 <HAL_RCC_OscConfig+0x84>
 8000784:	210c      	movs	r1, #12
 8000786:	48c0      	ldr	r0, [pc, #768]	; (8000a88 <HAL_RCC_OscConfig+0x31c>)
 8000788:	6842      	ldr	r2, [r0, #4]
 800078a:	400a      	ands	r2, r1
 800078c:	2a04      	cmp	r2, #4
 800078e:	d100      	bne.n	8000792 <HAL_RCC_OscConfig+0x26>
 8000790:	e15e      	b.n	8000a50 <HAL_RCC_OscConfig+0x2e4>
 8000792:	6842      	ldr	r2, [r0, #4]
 8000794:	4011      	ands	r1, r2
 8000796:	2908      	cmp	r1, #8
 8000798:	d100      	bne.n	800079c <HAL_RCC_OscConfig+0x30>
 800079a:	e150      	b.n	8000a3e <HAL_RCC_OscConfig+0x2d2>
 800079c:	6863      	ldr	r3, [r4, #4]
 800079e:	2b01      	cmp	r3, #1
 80007a0:	d00f      	beq.n	80007c2 <HAL_RCC_OscConfig+0x56>
 80007a2:	2b00      	cmp	r3, #0
 80007a4:	d100      	bne.n	80007a8 <HAL_RCC_OscConfig+0x3c>
 80007a6:	e17d      	b.n	8000aa4 <HAL_RCC_OscConfig+0x338>
 80007a8:	2b05      	cmp	r3, #5
 80007aa:	d100      	bne.n	80007ae <HAL_RCC_OscConfig+0x42>
 80007ac:	e1ed      	b.n	8000b8a <HAL_RCC_OscConfig+0x41e>
 80007ae:	4bb6      	ldr	r3, [pc, #728]	; (8000a88 <HAL_RCC_OscConfig+0x31c>)
 80007b0:	49b6      	ldr	r1, [pc, #728]	; (8000a8c <HAL_RCC_OscConfig+0x320>)
 80007b2:	681a      	ldr	r2, [r3, #0]
 80007b4:	400a      	ands	r2, r1
 80007b6:	601a      	str	r2, [r3, #0]
 80007b8:	681a      	ldr	r2, [r3, #0]
 80007ba:	49b5      	ldr	r1, [pc, #724]	; (8000a90 <HAL_RCC_OscConfig+0x324>)
 80007bc:	400a      	ands	r2, r1
 80007be:	601a      	str	r2, [r3, #0]
 80007c0:	e005      	b.n	80007ce <HAL_RCC_OscConfig+0x62>
 80007c2:	2380      	movs	r3, #128	; 0x80
 80007c4:	4ab0      	ldr	r2, [pc, #704]	; (8000a88 <HAL_RCC_OscConfig+0x31c>)
 80007c6:	025b      	lsls	r3, r3, #9
 80007c8:	6811      	ldr	r1, [r2, #0]
 80007ca:	430b      	orrs	r3, r1
 80007cc:	6013      	str	r3, [r2, #0]
 80007ce:	f7ff fe79 	bl	80004c4 <HAL_GetTick>
 80007d2:	2580      	movs	r5, #128	; 0x80
 80007d4:	0007      	movs	r7, r0
 80007d6:	4eac      	ldr	r6, [pc, #688]	; (8000a88 <HAL_RCC_OscConfig+0x31c>)
 80007d8:	02ad      	lsls	r5, r5, #10
 80007da:	e005      	b.n	80007e8 <HAL_RCC_OscConfig+0x7c>
 80007dc:	f7ff fe72 	bl	80004c4 <HAL_GetTick>
 80007e0:	1bc0      	subs	r0, r0, r7
 80007e2:	2864      	cmp	r0, #100	; 0x64
 80007e4:	d900      	bls.n	80007e8 <HAL_RCC_OscConfig+0x7c>
 80007e6:	e14d      	b.n	8000a84 <HAL_RCC_OscConfig+0x318>
 80007e8:	6833      	ldr	r3, [r6, #0]
 80007ea:	422b      	tst	r3, r5
 80007ec:	d0f6      	beq.n	80007dc <HAL_RCC_OscConfig+0x70>
 80007ee:	6823      	ldr	r3, [r4, #0]
 80007f0:	079a      	lsls	r2, r3, #30
 80007f2:	d444      	bmi.n	800087e <HAL_RCC_OscConfig+0x112>
 80007f4:	071a      	lsls	r2, r3, #28
 80007f6:	d517      	bpl.n	8000828 <HAL_RCC_OscConfig+0xbc>
 80007f8:	69e3      	ldr	r3, [r4, #28]
 80007fa:	4da3      	ldr	r5, [pc, #652]	; (8000a88 <HAL_RCC_OscConfig+0x31c>)
 80007fc:	2b00      	cmp	r3, #0
 80007fe:	d100      	bne.n	8000802 <HAL_RCC_OscConfig+0x96>
 8000800:	e0d3      	b.n	80009aa <HAL_RCC_OscConfig+0x23e>
 8000802:	2201      	movs	r2, #1
 8000804:	6a6b      	ldr	r3, [r5, #36]	; 0x24
 8000806:	2602      	movs	r6, #2
 8000808:	4313      	orrs	r3, r2
 800080a:	626b      	str	r3, [r5, #36]	; 0x24
 800080c:	f7ff fe5a 	bl	80004c4 <HAL_GetTick>
 8000810:	0007      	movs	r7, r0
 8000812:	e005      	b.n	8000820 <HAL_RCC_OscConfig+0xb4>
 8000814:	f7ff fe56 	bl	80004c4 <HAL_GetTick>
 8000818:	1bc0      	subs	r0, r0, r7
 800081a:	2802      	cmp	r0, #2
 800081c:	d900      	bls.n	8000820 <HAL_RCC_OscConfig+0xb4>
 800081e:	e131      	b.n	8000a84 <HAL_RCC_OscConfig+0x318>
 8000820:	6a6b      	ldr	r3, [r5, #36]	; 0x24
 8000822:	421e      	tst	r6, r3
 8000824:	d0f6      	beq.n	8000814 <HAL_RCC_OscConfig+0xa8>
 8000826:	6823      	ldr	r3, [r4, #0]
 8000828:	075a      	lsls	r2, r3, #29
 800082a:	d571      	bpl.n	8000910 <HAL_RCC_OscConfig+0x1a4>
 800082c:	2280      	movs	r2, #128	; 0x80
 800082e:	4b96      	ldr	r3, [pc, #600]	; (8000a88 <HAL_RCC_OscConfig+0x31c>)
 8000830:	0552      	lsls	r2, r2, #21
 8000832:	69d9      	ldr	r1, [r3, #28]
 8000834:	2500      	movs	r5, #0
 8000836:	4211      	tst	r1, r2
 8000838:	d107      	bne.n	800084a <HAL_RCC_OscConfig+0xde>
 800083a:	69d9      	ldr	r1, [r3, #28]
 800083c:	3501      	adds	r5, #1
 800083e:	4311      	orrs	r1, r2
 8000840:	61d9      	str	r1, [r3, #28]
 8000842:	69db      	ldr	r3, [r3, #28]
 8000844:	401a      	ands	r2, r3
 8000846:	9201      	str	r2, [sp, #4]
 8000848:	9b01      	ldr	r3, [sp, #4]
 800084a:	2680      	movs	r6, #128	; 0x80
 800084c:	4f91      	ldr	r7, [pc, #580]	; (8000a94 <HAL_RCC_OscConfig+0x328>)
 800084e:	0076      	lsls	r6, r6, #1
 8000850:	683b      	ldr	r3, [r7, #0]
 8000852:	4233      	tst	r3, r6
 8000854:	d100      	bne.n	8000858 <HAL_RCC_OscConfig+0xec>
 8000856:	e105      	b.n	8000a64 <HAL_RCC_OscConfig+0x2f8>
 8000858:	68a3      	ldr	r3, [r4, #8]
 800085a:	2b01      	cmp	r3, #1
 800085c:	d03a      	beq.n	80008d4 <HAL_RCC_OscConfig+0x168>
 800085e:	2b00      	cmp	r3, #0
 8000860:	d100      	bne.n	8000864 <HAL_RCC_OscConfig+0xf8>
 8000862:	e138      	b.n	8000ad6 <HAL_RCC_OscConfig+0x36a>
 8000864:	2b05      	cmp	r3, #5
 8000866:	d100      	bne.n	800086a <HAL_RCC_OscConfig+0xfe>
 8000868:	e1d3      	b.n	8000c12 <HAL_RCC_OscConfig+0x4a6>
 800086a:	2101      	movs	r1, #1
 800086c:	4b86      	ldr	r3, [pc, #536]	; (8000a88 <HAL_RCC_OscConfig+0x31c>)
 800086e:	6a1a      	ldr	r2, [r3, #32]
 8000870:	438a      	bics	r2, r1
 8000872:	621a      	str	r2, [r3, #32]
 8000874:	6a1a      	ldr	r2, [r3, #32]
 8000876:	3103      	adds	r1, #3
 8000878:	438a      	bics	r2, r1
 800087a:	621a      	str	r2, [r3, #32]
 800087c:	e02e      	b.n	80008dc <HAL_RCC_OscConfig+0x170>
 800087e:	220c      	movs	r2, #12
 8000880:	4981      	ldr	r1, [pc, #516]	; (8000a88 <HAL_RCC_OscConfig+0x31c>)
 8000882:	6848      	ldr	r0, [r1, #4]
 8000884:	4202      	tst	r2, r0
 8000886:	d100      	bne.n	800088a <HAL_RCC_OscConfig+0x11e>
 8000888:	e07f      	b.n	800098a <HAL_RCC_OscConfig+0x21e>
 800088a:	6848      	ldr	r0, [r1, #4]
 800088c:	4002      	ands	r2, r0
 800088e:	2a08      	cmp	r2, #8
 8000890:	d100      	bne.n	8000894 <HAL_RCC_OscConfig+0x128>
 8000892:	e071      	b.n	8000978 <HAL_RCC_OscConfig+0x20c>
 8000894:	68e3      	ldr	r3, [r4, #12]
 8000896:	2b00      	cmp	r3, #0
 8000898:	d100      	bne.n	800089c <HAL_RCC_OscConfig+0x130>
 800089a:	e136      	b.n	8000b0a <HAL_RCC_OscConfig+0x39e>
 800089c:	2201      	movs	r2, #1
 800089e:	4f7a      	ldr	r7, [pc, #488]	; (8000a88 <HAL_RCC_OscConfig+0x31c>)
 80008a0:	2502      	movs	r5, #2
 80008a2:	683b      	ldr	r3, [r7, #0]
 80008a4:	4313      	orrs	r3, r2
 80008a6:	603b      	str	r3, [r7, #0]
 80008a8:	f7ff fe0c 	bl	80004c4 <HAL_GetTick>
 80008ac:	0006      	movs	r6, r0
 80008ae:	e005      	b.n	80008bc <HAL_RCC_OscConfig+0x150>
 80008b0:	f7ff fe08 	bl	80004c4 <HAL_GetTick>
 80008b4:	1b80      	subs	r0, r0, r6
 80008b6:	2802      	cmp	r0, #2
 80008b8:	d900      	bls.n	80008bc <HAL_RCC_OscConfig+0x150>
 80008ba:	e0e3      	b.n	8000a84 <HAL_RCC_OscConfig+0x318>
 80008bc:	683b      	ldr	r3, [r7, #0]
 80008be:	421d      	tst	r5, r3
 80008c0:	d0f6      	beq.n	80008b0 <HAL_RCC_OscConfig+0x144>
 80008c2:	21f8      	movs	r1, #248	; 0xf8
 80008c4:	683a      	ldr	r2, [r7, #0]
 80008c6:	6923      	ldr	r3, [r4, #16]
 80008c8:	438a      	bics	r2, r1
 80008ca:	00db      	lsls	r3, r3, #3
 80008cc:	4313      	orrs	r3, r2
 80008ce:	603b      	str	r3, [r7, #0]
 80008d0:	6823      	ldr	r3, [r4, #0]
 80008d2:	e78f      	b.n	80007f4 <HAL_RCC_OscConfig+0x88>
 80008d4:	496c      	ldr	r1, [pc, #432]	; (8000a88 <HAL_RCC_OscConfig+0x31c>)
 80008d6:	6a0a      	ldr	r2, [r1, #32]
 80008d8:	4313      	orrs	r3, r2
 80008da:	620b      	str	r3, [r1, #32]
 80008dc:	f7ff fdf2 	bl	80004c4 <HAL_GetTick>
 80008e0:	4b6d      	ldr	r3, [pc, #436]	; (8000a98 <HAL_RCC_OscConfig+0x32c>)
 80008e2:	4681      	mov	r9, r0
 80008e4:	4f68      	ldr	r7, [pc, #416]	; (8000a88 <HAL_RCC_OscConfig+0x31c>)
 80008e6:	2602      	movs	r6, #2
 80008e8:	4698      	mov	r8, r3
 80008ea:	e006      	b.n	80008fa <HAL_RCC_OscConfig+0x18e>
 80008ec:	f7ff fdea 	bl	80004c4 <HAL_GetTick>
 80008f0:	464b      	mov	r3, r9
 80008f2:	1ac0      	subs	r0, r0, r3
 80008f4:	4540      	cmp	r0, r8
 80008f6:	d900      	bls.n	80008fa <HAL_RCC_OscConfig+0x18e>
 80008f8:	e0c4      	b.n	8000a84 <HAL_RCC_OscConfig+0x318>
 80008fa:	6a3b      	ldr	r3, [r7, #32]
 80008fc:	421e      	tst	r6, r3
 80008fe:	d0f5      	beq.n	80008ec <HAL_RCC_OscConfig+0x180>
 8000900:	2d01      	cmp	r5, #1
 8000902:	d104      	bne.n	800090e <HAL_RCC_OscConfig+0x1a2>
 8000904:	4a60      	ldr	r2, [pc, #384]	; (8000a88 <HAL_RCC_OscConfig+0x31c>)
 8000906:	4965      	ldr	r1, [pc, #404]	; (8000a9c <HAL_RCC_OscConfig+0x330>)
 8000908:	69d3      	ldr	r3, [r2, #28]
 800090a:	400b      	ands	r3, r1
 800090c:	61d3      	str	r3, [r2, #28]
 800090e:	6823      	ldr	r3, [r4, #0]
 8000910:	06da      	lsls	r2, r3, #27
 8000912:	d512      	bpl.n	800093a <HAL_RCC_OscConfig+0x1ce>
 8000914:	6962      	ldr	r2, [r4, #20]
 8000916:	2a01      	cmp	r2, #1
 8000918:	d100      	bne.n	800091c <HAL_RCC_OscConfig+0x1b0>
 800091a:	e19f      	b.n	8000c5c <HAL_RCC_OscConfig+0x4f0>
 800091c:	3205      	adds	r2, #5
 800091e:	d000      	beq.n	8000922 <HAL_RCC_OscConfig+0x1b6>
 8000920:	e107      	b.n	8000b32 <HAL_RCC_OscConfig+0x3c6>
 8000922:	2004      	movs	r0, #4
 8000924:	25f8      	movs	r5, #248	; 0xf8
 8000926:	4958      	ldr	r1, [pc, #352]	; (8000a88 <HAL_RCC_OscConfig+0x31c>)
 8000928:	6b4a      	ldr	r2, [r1, #52]	; 0x34
 800092a:	4382      	bics	r2, r0
 800092c:	634a      	str	r2, [r1, #52]	; 0x34
 800092e:	6b48      	ldr	r0, [r1, #52]	; 0x34
 8000930:	69a2      	ldr	r2, [r4, #24]
 8000932:	43a8      	bics	r0, r5
 8000934:	00d2      	lsls	r2, r2, #3
 8000936:	4302      	orrs	r2, r0
 8000938:	634a      	str	r2, [r1, #52]	; 0x34
 800093a:	069b      	lsls	r3, r3, #26
 800093c:	d55e      	bpl.n	80009fc <HAL_RCC_OscConfig+0x290>
 800093e:	220c      	movs	r2, #12
 8000940:	4951      	ldr	r1, [pc, #324]	; (8000a88 <HAL_RCC_OscConfig+0x31c>)
 8000942:	684b      	ldr	r3, [r1, #4]
 8000944:	4013      	ands	r3, r2
 8000946:	2b0c      	cmp	r3, #12
 8000948:	d009      	beq.n	800095e <HAL_RCC_OscConfig+0x1f2>
 800094a:	684b      	ldr	r3, [r1, #4]
 800094c:	401a      	ands	r2, r3
 800094e:	2a08      	cmp	r2, #8
 8000950:	d13e      	bne.n	80009d0 <HAL_RCC_OscConfig+0x264>
 8000952:	22c0      	movs	r2, #192	; 0xc0
 8000954:	684b      	ldr	r3, [r1, #4]
 8000956:	0252      	lsls	r2, r2, #9
 8000958:	4013      	ands	r3, r2
 800095a:	4293      	cmp	r3, r2
 800095c:	d138      	bne.n	80009d0 <HAL_RCC_OscConfig+0x264>
 800095e:	4b4a      	ldr	r3, [pc, #296]	; (8000a88 <HAL_RCC_OscConfig+0x31c>)
 8000960:	6b5b      	ldr	r3, [r3, #52]	; 0x34
 8000962:	03db      	lsls	r3, r3, #15
 8000964:	d54a      	bpl.n	80009fc <HAL_RCC_OscConfig+0x290>
 8000966:	6a23      	ldr	r3, [r4, #32]
 8000968:	2b01      	cmp	r3, #1
 800096a:	d047      	beq.n	80009fc <HAL_RCC_OscConfig+0x290>
 800096c:	2001      	movs	r0, #1
 800096e:	b003      	add	sp, #12
 8000970:	bc0c      	pop	{r2, r3}
 8000972:	4690      	mov	r8, r2
 8000974:	4699      	mov	r9, r3
 8000976:	bdf0      	pop	{r4, r5, r6, r7, pc}
 8000978:	684a      	ldr	r2, [r1, #4]
 800097a:	21c0      	movs	r1, #192	; 0xc0
 800097c:	0249      	lsls	r1, r1, #9
 800097e:	400a      	ands	r2, r1
 8000980:	2180      	movs	r1, #128	; 0x80
 8000982:	0209      	lsls	r1, r1, #8
 8000984:	428a      	cmp	r2, r1
 8000986:	d000      	beq.n	800098a <HAL_RCC_OscConfig+0x21e>
 8000988:	e784      	b.n	8000894 <HAL_RCC_OscConfig+0x128>
 800098a:	4a3f      	ldr	r2, [pc, #252]	; (8000a88 <HAL_RCC_OscConfig+0x31c>)
 800098c:	6812      	ldr	r2, [r2, #0]
 800098e:	0792      	lsls	r2, r2, #30
 8000990:	d502      	bpl.n	8000998 <HAL_RCC_OscConfig+0x22c>
 8000992:	68e2      	ldr	r2, [r4, #12]
 8000994:	2a01      	cmp	r2, #1
 8000996:	d1e9      	bne.n	800096c <HAL_RCC_OscConfig+0x200>
 8000998:	25f8      	movs	r5, #248	; 0xf8
 800099a:	483b      	ldr	r0, [pc, #236]	; (8000a88 <HAL_RCC_OscConfig+0x31c>)
 800099c:	6922      	ldr	r2, [r4, #16]
 800099e:	6801      	ldr	r1, [r0, #0]
 80009a0:	00d2      	lsls	r2, r2, #3
 80009a2:	43a9      	bics	r1, r5
 80009a4:	430a      	orrs	r2, r1
 80009a6:	6002      	str	r2, [r0, #0]
 80009a8:	e724      	b.n	80007f4 <HAL_RCC_OscConfig+0x88>
 80009aa:	2201      	movs	r2, #1
 80009ac:	6a6b      	ldr	r3, [r5, #36]	; 0x24
 80009ae:	2602      	movs	r6, #2
 80009b0:	4393      	bics	r3, r2
 80009b2:	626b      	str	r3, [r5, #36]	; 0x24
 80009b4:	f7ff fd86 	bl	80004c4 <HAL_GetTick>
 80009b8:	0007      	movs	r7, r0
 80009ba:	e004      	b.n	80009c6 <HAL_RCC_OscConfig+0x25a>
 80009bc:	f7ff fd82 	bl	80004c4 <HAL_GetTick>
 80009c0:	1bc0      	subs	r0, r0, r7
 80009c2:	2802      	cmp	r0, #2
 80009c4:	d85e      	bhi.n	8000a84 <HAL_RCC_OscConfig+0x318>
 80009c6:	6a6b      	ldr	r3, [r5, #36]	; 0x24
 80009c8:	421e      	tst	r6, r3
 80009ca:	d1f7      	bne.n	80009bc <HAL_RCC_OscConfig+0x250>
 80009cc:	6823      	ldr	r3, [r4, #0]
 80009ce:	e72b      	b.n	8000828 <HAL_RCC_OscConfig+0xbc>
 80009d0:	6a23      	ldr	r3, [r4, #32]
 80009d2:	4d2d      	ldr	r5, [pc, #180]	; (8000a88 <HAL_RCC_OscConfig+0x31c>)
 80009d4:	2b00      	cmp	r3, #0
 80009d6:	d100      	bne.n	80009da <HAL_RCC_OscConfig+0x26e>
 80009d8:	e0c3      	b.n	8000b62 <HAL_RCC_OscConfig+0x3f6>
 80009da:	2680      	movs	r6, #128	; 0x80
 80009dc:	6b6b      	ldr	r3, [r5, #52]	; 0x34
 80009de:	0276      	lsls	r6, r6, #9
 80009e0:	4333      	orrs	r3, r6
 80009e2:	636b      	str	r3, [r5, #52]	; 0x34
 80009e4:	f7ff fd6e 	bl	80004c4 <HAL_GetTick>
 80009e8:	0007      	movs	r7, r0
 80009ea:	e004      	b.n	80009f6 <HAL_RCC_OscConfig+0x28a>
 80009ec:	f7ff fd6a 	bl	80004c4 <HAL_GetTick>
 80009f0:	1bc0      	subs	r0, r0, r7
 80009f2:	2802      	cmp	r0, #2
 80009f4:	d846      	bhi.n	8000a84 <HAL_RCC_OscConfig+0x318>
 80009f6:	6b6b      	ldr	r3, [r5, #52]	; 0x34
 80009f8:	4233      	tst	r3, r6
 80009fa:	d0f7      	beq.n	80009ec <HAL_RCC_OscConfig+0x280>
 80009fc:	6a63      	ldr	r3, [r4, #36]	; 0x24
 80009fe:	2b00      	cmp	r3, #0
 8000a00:	d01b      	beq.n	8000a3a <HAL_RCC_OscConfig+0x2ce>
 8000a02:	220c      	movs	r2, #12
 8000a04:	4d20      	ldr	r5, [pc, #128]	; (8000a88 <HAL_RCC_OscConfig+0x31c>)
 8000a06:	6869      	ldr	r1, [r5, #4]
 8000a08:	400a      	ands	r2, r1
 8000a0a:	2a08      	cmp	r2, #8
 8000a0c:	d100      	bne.n	8000a10 <HAL_RCC_OscConfig+0x2a4>
 8000a0e:	e10a      	b.n	8000c26 <HAL_RCC_OscConfig+0x4ba>
 8000a10:	2b02      	cmp	r3, #2
 8000a12:	d100      	bne.n	8000a16 <HAL_RCC_OscConfig+0x2aa>
 8000a14:	e0c5      	b.n	8000ba2 <HAL_RCC_OscConfig+0x436>
 8000a16:	682b      	ldr	r3, [r5, #0]
 8000a18:	4a21      	ldr	r2, [pc, #132]	; (8000aa0 <HAL_RCC_OscConfig+0x334>)
 8000a1a:	2480      	movs	r4, #128	; 0x80
 8000a1c:	4013      	ands	r3, r2
 8000a1e:	602b      	str	r3, [r5, #0]
 8000a20:	f7ff fd50 	bl	80004c4 <HAL_GetTick>
 8000a24:	04a4      	lsls	r4, r4, #18
 8000a26:	0006      	movs	r6, r0
 8000a28:	e004      	b.n	8000a34 <HAL_RCC_OscConfig+0x2c8>
 8000a2a:	f7ff fd4b 	bl	80004c4 <HAL_GetTick>
 8000a2e:	1b80      	subs	r0, r0, r6
 8000a30:	2802      	cmp	r0, #2
 8000a32:	d827      	bhi.n	8000a84 <HAL_RCC_OscConfig+0x318>
 8000a34:	682b      	ldr	r3, [r5, #0]
 8000a36:	4223      	tst	r3, r4
 8000a38:	d1f7      	bne.n	8000a2a <HAL_RCC_OscConfig+0x2be>
 8000a3a:	2000      	movs	r0, #0
 8000a3c:	e797      	b.n	800096e <HAL_RCC_OscConfig+0x202>
 8000a3e:	21c0      	movs	r1, #192	; 0xc0
 8000a40:	6842      	ldr	r2, [r0, #4]
 8000a42:	0249      	lsls	r1, r1, #9
 8000a44:	400a      	ands	r2, r1
 8000a46:	2180      	movs	r1, #128	; 0x80
 8000a48:	0249      	lsls	r1, r1, #9
 8000a4a:	428a      	cmp	r2, r1
 8000a4c:	d000      	beq.n	8000a50 <HAL_RCC_OscConfig+0x2e4>
 8000a4e:	e6a5      	b.n	800079c <HAL_RCC_OscConfig+0x30>
 8000a50:	4a0d      	ldr	r2, [pc, #52]	; (8000a88 <HAL_RCC_OscConfig+0x31c>)
 8000a52:	6812      	ldr	r2, [r2, #0]
 8000a54:	0392      	lsls	r2, r2, #14
 8000a56:	d400      	bmi.n	8000a5a <HAL_RCC_OscConfig+0x2ee>
 8000a58:	e6ca      	b.n	80007f0 <HAL_RCC_OscConfig+0x84>
 8000a5a:	6862      	ldr	r2, [r4, #4]
 8000a5c:	2a00      	cmp	r2, #0
 8000a5e:	d000      	beq.n	8000a62 <HAL_RCC_OscConfig+0x2f6>
 8000a60:	e6c6      	b.n	80007f0 <HAL_RCC_OscConfig+0x84>
 8000a62:	e783      	b.n	800096c <HAL_RCC_OscConfig+0x200>
 8000a64:	683b      	ldr	r3, [r7, #0]
 8000a66:	4333      	orrs	r3, r6
 8000a68:	603b      	str	r3, [r7, #0]
 8000a6a:	f7ff fd2b 	bl	80004c4 <HAL_GetTick>
 8000a6e:	4680      	mov	r8, r0
 8000a70:	683b      	ldr	r3, [r7, #0]
 8000a72:	4233      	tst	r3, r6
 8000a74:	d000      	beq.n	8000a78 <HAL_RCC_OscConfig+0x30c>
 8000a76:	e6ef      	b.n	8000858 <HAL_RCC_OscConfig+0xec>
 8000a78:	f7ff fd24 	bl	80004c4 <HAL_GetTick>
 8000a7c:	4643      	mov	r3, r8
 8000a7e:	1ac0      	subs	r0, r0, r3
 8000a80:	2864      	cmp	r0, #100	; 0x64
 8000a82:	d9f5      	bls.n	8000a70 <HAL_RCC_OscConfig+0x304>
 8000a84:	2003      	movs	r0, #3
 8000a86:	e772      	b.n	800096e <HAL_RCC_OscConfig+0x202>
 8000a88:	40021000 	.word	0x40021000
 8000a8c:	fffeffff 	.word	0xfffeffff
 8000a90:	fffbffff 	.word	0xfffbffff
 8000a94:	40007000 	.word	0x40007000
 8000a98:	00001388 	.word	0x00001388
 8000a9c:	efffffff 	.word	0xefffffff
 8000aa0:	feffffff 	.word	0xfeffffff
 8000aa4:	4d7d      	ldr	r5, [pc, #500]	; (8000c9c <HAL_RCC_OscConfig+0x530>)
 8000aa6:	4a7e      	ldr	r2, [pc, #504]	; (8000ca0 <HAL_RCC_OscConfig+0x534>)
 8000aa8:	682b      	ldr	r3, [r5, #0]
 8000aaa:	2680      	movs	r6, #128	; 0x80
 8000aac:	4013      	ands	r3, r2
 8000aae:	602b      	str	r3, [r5, #0]
 8000ab0:	682b      	ldr	r3, [r5, #0]
 8000ab2:	4a7c      	ldr	r2, [pc, #496]	; (8000ca4 <HAL_RCC_OscConfig+0x538>)
 8000ab4:	02b6      	lsls	r6, r6, #10
 8000ab6:	4013      	ands	r3, r2
 8000ab8:	602b      	str	r3, [r5, #0]
 8000aba:	f7ff fd03 	bl	80004c4 <HAL_GetTick>
 8000abe:	0007      	movs	r7, r0
 8000ac0:	e004      	b.n	8000acc <HAL_RCC_OscConfig+0x360>
 8000ac2:	f7ff fcff 	bl	80004c4 <HAL_GetTick>
 8000ac6:	1bc0      	subs	r0, r0, r7
 8000ac8:	2864      	cmp	r0, #100	; 0x64
 8000aca:	d8db      	bhi.n	8000a84 <HAL_RCC_OscConfig+0x318>
 8000acc:	682b      	ldr	r3, [r5, #0]
 8000ace:	4233      	tst	r3, r6
 8000ad0:	d1f7      	bne.n	8000ac2 <HAL_RCC_OscConfig+0x356>
 8000ad2:	6823      	ldr	r3, [r4, #0]
 8000ad4:	e68c      	b.n	80007f0 <HAL_RCC_OscConfig+0x84>
 8000ad6:	2201      	movs	r2, #1
 8000ad8:	4e70      	ldr	r6, [pc, #448]	; (8000c9c <HAL_RCC_OscConfig+0x530>)
 8000ada:	2702      	movs	r7, #2
 8000adc:	6a33      	ldr	r3, [r6, #32]
 8000ade:	4393      	bics	r3, r2
 8000ae0:	6233      	str	r3, [r6, #32]
 8000ae2:	6a33      	ldr	r3, [r6, #32]
 8000ae4:	3203      	adds	r2, #3
 8000ae6:	4393      	bics	r3, r2
 8000ae8:	6233      	str	r3, [r6, #32]
 8000aea:	f7ff fceb 	bl	80004c4 <HAL_GetTick>
 8000aee:	4b6e      	ldr	r3, [pc, #440]	; (8000ca8 <HAL_RCC_OscConfig+0x53c>)
 8000af0:	4681      	mov	r9, r0
 8000af2:	4698      	mov	r8, r3
 8000af4:	e005      	b.n	8000b02 <HAL_RCC_OscConfig+0x396>
 8000af6:	f7ff fce5 	bl	80004c4 <HAL_GetTick>
 8000afa:	464b      	mov	r3, r9
 8000afc:	1ac0      	subs	r0, r0, r3
 8000afe:	4540      	cmp	r0, r8
 8000b00:	d8c0      	bhi.n	8000a84 <HAL_RCC_OscConfig+0x318>
 8000b02:	6a33      	ldr	r3, [r6, #32]
 8000b04:	421f      	tst	r7, r3
 8000b06:	d1f6      	bne.n	8000af6 <HAL_RCC_OscConfig+0x38a>
 8000b08:	e6fa      	b.n	8000900 <HAL_RCC_OscConfig+0x194>
 8000b0a:	2201      	movs	r2, #1
 8000b0c:	4d63      	ldr	r5, [pc, #396]	; (8000c9c <HAL_RCC_OscConfig+0x530>)
 8000b0e:	2602      	movs	r6, #2
 8000b10:	682b      	ldr	r3, [r5, #0]
 8000b12:	4393      	bics	r3, r2
 8000b14:	602b      	str	r3, [r5, #0]
 8000b16:	f7ff fcd5 	bl	80004c4 <HAL_GetTick>
 8000b1a:	0007      	movs	r7, r0
 8000b1c:	e004      	b.n	8000b28 <HAL_RCC_OscConfig+0x3bc>
 8000b1e:	f7ff fcd1 	bl	80004c4 <HAL_GetTick>
 8000b22:	1bc0      	subs	r0, r0, r7
 8000b24:	2802      	cmp	r0, #2
 8000b26:	d8ad      	bhi.n	8000a84 <HAL_RCC_OscConfig+0x318>
 8000b28:	682b      	ldr	r3, [r5, #0]
 8000b2a:	421e      	tst	r6, r3
 8000b2c:	d1f7      	bne.n	8000b1e <HAL_RCC_OscConfig+0x3b2>
 8000b2e:	6823      	ldr	r3, [r4, #0]
 8000b30:	e660      	b.n	80007f4 <HAL_RCC_OscConfig+0x88>
 8000b32:	2204      	movs	r2, #4
 8000b34:	4d59      	ldr	r5, [pc, #356]	; (8000c9c <HAL_RCC_OscConfig+0x530>)
 8000b36:	2602      	movs	r6, #2
 8000b38:	6b6b      	ldr	r3, [r5, #52]	; 0x34
 8000b3a:	4313      	orrs	r3, r2
 8000b3c:	636b      	str	r3, [r5, #52]	; 0x34
 8000b3e:	6b6b      	ldr	r3, [r5, #52]	; 0x34
 8000b40:	3a03      	subs	r2, #3
 8000b42:	4393      	bics	r3, r2
 8000b44:	636b      	str	r3, [r5, #52]	; 0x34
 8000b46:	f7ff fcbd 	bl	80004c4 <HAL_GetTick>
 8000b4a:	0007      	movs	r7, r0
 8000b4c:	e004      	b.n	8000b58 <HAL_RCC_OscConfig+0x3ec>
 8000b4e:	f7ff fcb9 	bl	80004c4 <HAL_GetTick>
 8000b52:	1bc0      	subs	r0, r0, r7
 8000b54:	2802      	cmp	r0, #2
 8000b56:	d895      	bhi.n	8000a84 <HAL_RCC_OscConfig+0x318>
 8000b58:	6b6b      	ldr	r3, [r5, #52]	; 0x34
 8000b5a:	421e      	tst	r6, r3
 8000b5c:	d1f7      	bne.n	8000b4e <HAL_RCC_OscConfig+0x3e2>
 8000b5e:	6823      	ldr	r3, [r4, #0]
 8000b60:	e6eb      	b.n	800093a <HAL_RCC_OscConfig+0x1ce>
 8000b62:	6b6b      	ldr	r3, [r5, #52]	; 0x34
 8000b64:	4a4e      	ldr	r2, [pc, #312]	; (8000ca0 <HAL_RCC_OscConfig+0x534>)
 8000b66:	2680      	movs	r6, #128	; 0x80
 8000b68:	4013      	ands	r3, r2
 8000b6a:	636b      	str	r3, [r5, #52]	; 0x34
 8000b6c:	f7ff fcaa 	bl	80004c4 <HAL_GetTick>
 8000b70:	0276      	lsls	r6, r6, #9
 8000b72:	0007      	movs	r7, r0
 8000b74:	e005      	b.n	8000b82 <HAL_RCC_OscConfig+0x416>
 8000b76:	f7ff fca5 	bl	80004c4 <HAL_GetTick>
 8000b7a:	1bc0      	subs	r0, r0, r7
 8000b7c:	2802      	cmp	r0, #2
 8000b7e:	d900      	bls.n	8000b82 <HAL_RCC_OscConfig+0x416>
 8000b80:	e780      	b.n	8000a84 <HAL_RCC_OscConfig+0x318>
 8000b82:	6b6b      	ldr	r3, [r5, #52]	; 0x34
 8000b84:	4233      	tst	r3, r6
 8000b86:	d1f6      	bne.n	8000b76 <HAL_RCC_OscConfig+0x40a>
 8000b88:	e738      	b.n	80009fc <HAL_RCC_OscConfig+0x290>
 8000b8a:	2280      	movs	r2, #128	; 0x80
 8000b8c:	4b43      	ldr	r3, [pc, #268]	; (8000c9c <HAL_RCC_OscConfig+0x530>)
 8000b8e:	02d2      	lsls	r2, r2, #11
 8000b90:	6819      	ldr	r1, [r3, #0]
 8000b92:	430a      	orrs	r2, r1
 8000b94:	601a      	str	r2, [r3, #0]
 8000b96:	2280      	movs	r2, #128	; 0x80
 8000b98:	6819      	ldr	r1, [r3, #0]
 8000b9a:	0252      	lsls	r2, r2, #9
 8000b9c:	430a      	orrs	r2, r1
 8000b9e:	601a      	str	r2, [r3, #0]
 8000ba0:	e615      	b.n	80007ce <HAL_RCC_OscConfig+0x62>
 8000ba2:	682b      	ldr	r3, [r5, #0]
 8000ba4:	4a41      	ldr	r2, [pc, #260]	; (8000cac <HAL_RCC_OscConfig+0x540>)
 8000ba6:	2680      	movs	r6, #128	; 0x80
 8000ba8:	4013      	ands	r3, r2
 8000baa:	602b      	str	r3, [r5, #0]
 8000bac:	f7ff fc8a 	bl	80004c4 <HAL_GetTick>
 8000bb0:	04b6      	lsls	r6, r6, #18
 8000bb2:	0007      	movs	r7, r0
 8000bb4:	e005      	b.n	8000bc2 <HAL_RCC_OscConfig+0x456>
 8000bb6:	f7ff fc85 	bl	80004c4 <HAL_GetTick>
 8000bba:	1bc0      	subs	r0, r0, r7
 8000bbc:	2802      	cmp	r0, #2
 8000bbe:	d900      	bls.n	8000bc2 <HAL_RCC_OscConfig+0x456>
 8000bc0:	e760      	b.n	8000a84 <HAL_RCC_OscConfig+0x318>
 8000bc2:	682b      	ldr	r3, [r5, #0]
 8000bc4:	4233      	tst	r3, r6
 8000bc6:	d1f6      	bne.n	8000bb6 <HAL_RCC_OscConfig+0x44a>
 8000bc8:	220f      	movs	r2, #15
 8000bca:	6aeb      	ldr	r3, [r5, #44]	; 0x2c
 8000bcc:	4393      	bics	r3, r2
 8000bce:	6b22      	ldr	r2, [r4, #48]	; 0x30
 8000bd0:	4313      	orrs	r3, r2
 8000bd2:	62eb      	str	r3, [r5, #44]	; 0x2c
 8000bd4:	6aa1      	ldr	r1, [r4, #40]	; 0x28
 8000bd6:	6ae3      	ldr	r3, [r4, #44]	; 0x2c
 8000bd8:	686a      	ldr	r2, [r5, #4]
 8000bda:	430b      	orrs	r3, r1
 8000bdc:	4934      	ldr	r1, [pc, #208]	; (8000cb0 <HAL_RCC_OscConfig+0x544>)
 8000bde:	2480      	movs	r4, #128	; 0x80
 8000be0:	400a      	ands	r2, r1
 8000be2:	4313      	orrs	r3, r2
 8000be4:	606b      	str	r3, [r5, #4]
 8000be6:	2380      	movs	r3, #128	; 0x80
 8000be8:	682a      	ldr	r2, [r5, #0]
 8000bea:	045b      	lsls	r3, r3, #17
 8000bec:	4313      	orrs	r3, r2
 8000bee:	602b      	str	r3, [r5, #0]
 8000bf0:	f7ff fc68 	bl	80004c4 <HAL_GetTick>
 8000bf4:	4d29      	ldr	r5, [pc, #164]	; (8000c9c <HAL_RCC_OscConfig+0x530>)
 8000bf6:	0006      	movs	r6, r0
 8000bf8:	04a4      	lsls	r4, r4, #18
 8000bfa:	e005      	b.n	8000c08 <HAL_RCC_OscConfig+0x49c>
 8000bfc:	f7ff fc62 	bl	80004c4 <HAL_GetTick>
 8000c00:	1b80      	subs	r0, r0, r6
 8000c02:	2802      	cmp	r0, #2
 8000c04:	d900      	bls.n	8000c08 <HAL_RCC_OscConfig+0x49c>
 8000c06:	e73d      	b.n	8000a84 <HAL_RCC_OscConfig+0x318>
 8000c08:	682b      	ldr	r3, [r5, #0]
 8000c0a:	4223      	tst	r3, r4
 8000c0c:	d0f6      	beq.n	8000bfc <HAL_RCC_OscConfig+0x490>
 8000c0e:	2000      	movs	r0, #0
 8000c10:	e6ad      	b.n	800096e <HAL_RCC_OscConfig+0x202>
 8000c12:	2104      	movs	r1, #4
 8000c14:	4b21      	ldr	r3, [pc, #132]	; (8000c9c <HAL_RCC_OscConfig+0x530>)
 8000c16:	6a1a      	ldr	r2, [r3, #32]
 8000c18:	430a      	orrs	r2, r1
 8000c1a:	621a      	str	r2, [r3, #32]
 8000c1c:	6a1a      	ldr	r2, [r3, #32]
 8000c1e:	3903      	subs	r1, #3
 8000c20:	430a      	orrs	r2, r1
 8000c22:	621a      	str	r2, [r3, #32]
 8000c24:	e65a      	b.n	80008dc <HAL_RCC_OscConfig+0x170>
 8000c26:	2b01      	cmp	r3, #1
 8000c28:	d100      	bne.n	8000c2c <HAL_RCC_OscConfig+0x4c0>
 8000c2a:	e69f      	b.n	800096c <HAL_RCC_OscConfig+0x200>
 8000c2c:	22c0      	movs	r2, #192	; 0xc0
 8000c2e:	686b      	ldr	r3, [r5, #4]
 8000c30:	6aa0      	ldr	r0, [r4, #40]	; 0x28
 8000c32:	0252      	lsls	r2, r2, #9
 8000c34:	6ae9      	ldr	r1, [r5, #44]	; 0x2c
 8000c36:	401a      	ands	r2, r3
 8000c38:	4282      	cmp	r2, r0
 8000c3a:	d000      	beq.n	8000c3e <HAL_RCC_OscConfig+0x4d2>
 8000c3c:	e696      	b.n	800096c <HAL_RCC_OscConfig+0x200>
 8000c3e:	220f      	movs	r2, #15
 8000c40:	400a      	ands	r2, r1
 8000c42:	6b21      	ldr	r1, [r4, #48]	; 0x30
 8000c44:	428a      	cmp	r2, r1
 8000c46:	d000      	beq.n	8000c4a <HAL_RCC_OscConfig+0x4de>
 8000c48:	e690      	b.n	800096c <HAL_RCC_OscConfig+0x200>
 8000c4a:	20f0      	movs	r0, #240	; 0xf0
 8000c4c:	0380      	lsls	r0, r0, #14
 8000c4e:	4003      	ands	r3, r0
 8000c50:	6ae0      	ldr	r0, [r4, #44]	; 0x2c
 8000c52:	1a18      	subs	r0, r3, r0
 8000c54:	1e43      	subs	r3, r0, #1
 8000c56:	4198      	sbcs	r0, r3
 8000c58:	b2c0      	uxtb	r0, r0
 8000c5a:	e688      	b.n	800096e <HAL_RCC_OscConfig+0x202>
 8000c5c:	2104      	movs	r1, #4
 8000c5e:	4d0f      	ldr	r5, [pc, #60]	; (8000c9c <HAL_RCC_OscConfig+0x530>)
 8000c60:	2602      	movs	r6, #2
 8000c62:	6b6b      	ldr	r3, [r5, #52]	; 0x34
 8000c64:	430b      	orrs	r3, r1
 8000c66:	636b      	str	r3, [r5, #52]	; 0x34
 8000c68:	6b6b      	ldr	r3, [r5, #52]	; 0x34
 8000c6a:	431a      	orrs	r2, r3
 8000c6c:	636a      	str	r2, [r5, #52]	; 0x34
 8000c6e:	f7ff fc29 	bl	80004c4 <HAL_GetTick>
 8000c72:	0007      	movs	r7, r0
 8000c74:	e005      	b.n	8000c82 <HAL_RCC_OscConfig+0x516>
 8000c76:	f7ff fc25 	bl	80004c4 <HAL_GetTick>
 8000c7a:	1bc0      	subs	r0, r0, r7
 8000c7c:	2802      	cmp	r0, #2
 8000c7e:	d900      	bls.n	8000c82 <HAL_RCC_OscConfig+0x516>
 8000c80:	e700      	b.n	8000a84 <HAL_RCC_OscConfig+0x318>
 8000c82:	6b6b      	ldr	r3, [r5, #52]	; 0x34
 8000c84:	421e      	tst	r6, r3
 8000c86:	d0f6      	beq.n	8000c76 <HAL_RCC_OscConfig+0x50a>
 8000c88:	21f8      	movs	r1, #248	; 0xf8
 8000c8a:	6b6a      	ldr	r2, [r5, #52]	; 0x34
 8000c8c:	69a3      	ldr	r3, [r4, #24]
 8000c8e:	438a      	bics	r2, r1
 8000c90:	00db      	lsls	r3, r3, #3
 8000c92:	4313      	orrs	r3, r2
 8000c94:	636b      	str	r3, [r5, #52]	; 0x34
 8000c96:	6823      	ldr	r3, [r4, #0]
 8000c98:	e64f      	b.n	800093a <HAL_RCC_OscConfig+0x1ce>
 8000c9a:	46c0      	nop			; (mov r8, r8)
 8000c9c:	40021000 	.word	0x40021000
 8000ca0:	fffeffff 	.word	0xfffeffff
 8000ca4:	fffbffff 	.word	0xfffbffff
 8000ca8:	00001388 	.word	0x00001388
 8000cac:	feffffff 	.word	0xfeffffff
 8000cb0:	ffc27fff 	.word	0xffc27fff

08000cb4 <HAL_RCC_ClockConfig>:
 8000cb4:	b5f0      	push	{r4, r5, r6, r7, lr}
 8000cb6:	46ce      	mov	lr, r9
 8000cb8:	4647      	mov	r7, r8
 8000cba:	b580      	push	{r7, lr}
 8000cbc:	0004      	movs	r4, r0
 8000cbe:	b089      	sub	sp, #36	; 0x24
 8000cc0:	000d      	movs	r5, r1
 8000cc2:	2800      	cmp	r0, #0
 8000cc4:	d00d      	beq.n	8000ce2 <HAL_RCC_ClockConfig+0x2e>
 8000cc6:	2301      	movs	r3, #1
 8000cc8:	495b      	ldr	r1, [pc, #364]	; (8000e38 <HAL_RCC_ClockConfig+0x184>)
 8000cca:	680a      	ldr	r2, [r1, #0]
 8000ccc:	401a      	ands	r2, r3
 8000cce:	42aa      	cmp	r2, r5
 8000cd0:	d20d      	bcs.n	8000cee <HAL_RCC_ClockConfig+0x3a>
 8000cd2:	680a      	ldr	r2, [r1, #0]
 8000cd4:	439a      	bics	r2, r3
 8000cd6:	432a      	orrs	r2, r5
 8000cd8:	600a      	str	r2, [r1, #0]
 8000cda:	680a      	ldr	r2, [r1, #0]
 8000cdc:	4013      	ands	r3, r2
 8000cde:	42ab      	cmp	r3, r5
 8000ce0:	d005      	beq.n	8000cee <HAL_RCC_ClockConfig+0x3a>
 8000ce2:	2001      	movs	r0, #1
 8000ce4:	b009      	add	sp, #36	; 0x24
 8000ce6:	bc0c      	pop	{r2, r3}
 8000ce8:	4690      	mov	r8, r2
 8000cea:	4699      	mov	r9, r3
 8000cec:	bdf0      	pop	{r4, r5, r6, r7, pc}
 8000cee:	6823      	ldr	r3, [r4, #0]
 8000cf0:	079a      	lsls	r2, r3, #30
 8000cf2:	d50e      	bpl.n	8000d12 <HAL_RCC_ClockConfig+0x5e>
 8000cf4:	075a      	lsls	r2, r3, #29
 8000cf6:	d505      	bpl.n	8000d04 <HAL_RCC_ClockConfig+0x50>
 8000cf8:	22e0      	movs	r2, #224	; 0xe0
 8000cfa:	4950      	ldr	r1, [pc, #320]	; (8000e3c <HAL_RCC_ClockConfig+0x188>)
 8000cfc:	00d2      	lsls	r2, r2, #3
 8000cfe:	6848      	ldr	r0, [r1, #4]
 8000d00:	4302      	orrs	r2, r0
 8000d02:	604a      	str	r2, [r1, #4]
 8000d04:	20f0      	movs	r0, #240	; 0xf0
 8000d06:	494d      	ldr	r1, [pc, #308]	; (8000e3c <HAL_RCC_ClockConfig+0x188>)
 8000d08:	684a      	ldr	r2, [r1, #4]
 8000d0a:	4382      	bics	r2, r0
 8000d0c:	68a0      	ldr	r0, [r4, #8]
 8000d0e:	4302      	orrs	r2, r0
 8000d10:	604a      	str	r2, [r1, #4]
 8000d12:	07db      	lsls	r3, r3, #31
 8000d14:	d524      	bpl.n	8000d60 <HAL_RCC_ClockConfig+0xac>
 8000d16:	6863      	ldr	r3, [r4, #4]
 8000d18:	4a48      	ldr	r2, [pc, #288]	; (8000e3c <HAL_RCC_ClockConfig+0x188>)
 8000d1a:	2b01      	cmp	r3, #1
 8000d1c:	d062      	beq.n	8000de4 <HAL_RCC_ClockConfig+0x130>
 8000d1e:	2b02      	cmp	r3, #2
 8000d20:	d07b      	beq.n	8000e1a <HAL_RCC_ClockConfig+0x166>
 8000d22:	2b03      	cmp	r3, #3
 8000d24:	d100      	bne.n	8000d28 <HAL_RCC_ClockConfig+0x74>
 8000d26:	e081      	b.n	8000e2c <HAL_RCC_ClockConfig+0x178>
 8000d28:	6812      	ldr	r2, [r2, #0]
 8000d2a:	0792      	lsls	r2, r2, #30
 8000d2c:	d5d9      	bpl.n	8000ce2 <HAL_RCC_ClockConfig+0x2e>
 8000d2e:	2103      	movs	r1, #3
 8000d30:	4e42      	ldr	r6, [pc, #264]	; (8000e3c <HAL_RCC_ClockConfig+0x188>)
 8000d32:	270c      	movs	r7, #12
 8000d34:	6872      	ldr	r2, [r6, #4]
 8000d36:	438a      	bics	r2, r1
 8000d38:	4313      	orrs	r3, r2
 8000d3a:	6073      	str	r3, [r6, #4]
 8000d3c:	f7ff fbc2 	bl	80004c4 <HAL_GetTick>
 8000d40:	4b3f      	ldr	r3, [pc, #252]	; (8000e40 <HAL_RCC_ClockConfig+0x18c>)
 8000d42:	4681      	mov	r9, r0
 8000d44:	4698      	mov	r8, r3
 8000d46:	e005      	b.n	8000d54 <HAL_RCC_ClockConfig+0xa0>
 8000d48:	f7ff fbbc 	bl	80004c4 <HAL_GetTick>
 8000d4c:	464b      	mov	r3, r9
 8000d4e:	1ac0      	subs	r0, r0, r3
 8000d50:	4540      	cmp	r0, r8
 8000d52:	d860      	bhi.n	8000e16 <HAL_RCC_ClockConfig+0x162>
 8000d54:	6872      	ldr	r2, [r6, #4]
 8000d56:	6863      	ldr	r3, [r4, #4]
 8000d58:	403a      	ands	r2, r7
 8000d5a:	009b      	lsls	r3, r3, #2
 8000d5c:	429a      	cmp	r2, r3
 8000d5e:	d1f3      	bne.n	8000d48 <HAL_RCC_ClockConfig+0x94>
 8000d60:	2101      	movs	r1, #1
 8000d62:	4a35      	ldr	r2, [pc, #212]	; (8000e38 <HAL_RCC_ClockConfig+0x184>)
 8000d64:	6813      	ldr	r3, [r2, #0]
 8000d66:	400b      	ands	r3, r1
 8000d68:	42ab      	cmp	r3, r5
 8000d6a:	d905      	bls.n	8000d78 <HAL_RCC_ClockConfig+0xc4>
 8000d6c:	6813      	ldr	r3, [r2, #0]
 8000d6e:	438b      	bics	r3, r1
 8000d70:	6013      	str	r3, [r2, #0]
 8000d72:	6813      	ldr	r3, [r2, #0]
 8000d74:	4219      	tst	r1, r3
 8000d76:	d1b4      	bne.n	8000ce2 <HAL_RCC_ClockConfig+0x2e>
 8000d78:	6823      	ldr	r3, [r4, #0]
 8000d7a:	075b      	lsls	r3, r3, #29
 8000d7c:	d506      	bpl.n	8000d8c <HAL_RCC_ClockConfig+0xd8>
 8000d7e:	4a2f      	ldr	r2, [pc, #188]	; (8000e3c <HAL_RCC_ClockConfig+0x188>)
 8000d80:	4930      	ldr	r1, [pc, #192]	; (8000e44 <HAL_RCC_ClockConfig+0x190>)
 8000d82:	6853      	ldr	r3, [r2, #4]
 8000d84:	400b      	ands	r3, r1
 8000d86:	68e1      	ldr	r1, [r4, #12]
 8000d88:	430b      	orrs	r3, r1
 8000d8a:	6053      	str	r3, [r2, #4]
 8000d8c:	4669      	mov	r1, sp
 8000d8e:	4b2e      	ldr	r3, [pc, #184]	; (8000e48 <HAL_RCC_ClockConfig+0x194>)
 8000d90:	000a      	movs	r2, r1
 8000d92:	0018      	movs	r0, r3
 8000d94:	c870      	ldmia	r0!, {r4, r5, r6}
 8000d96:	c270      	stmia	r2!, {r4, r5, r6}
 8000d98:	6800      	ldr	r0, [r0, #0]
 8000d9a:	3310      	adds	r3, #16
 8000d9c:	6010      	str	r0, [r2, #0]
 8000d9e:	aa04      	add	r2, sp, #16
 8000da0:	0010      	movs	r0, r2
 8000da2:	cb70      	ldmia	r3!, {r4, r5, r6}
 8000da4:	c070      	stmia	r0!, {r4, r5, r6}
 8000da6:	681b      	ldr	r3, [r3, #0]
 8000da8:	4d24      	ldr	r5, [pc, #144]	; (8000e3c <HAL_RCC_ClockConfig+0x188>)
 8000daa:	6003      	str	r3, [r0, #0]
 8000dac:	200c      	movs	r0, #12
 8000dae:	686b      	ldr	r3, [r5, #4]
 8000db0:	4018      	ands	r0, r3
 8000db2:	2808      	cmp	r0, #8
 8000db4:	d01a      	beq.n	8000dec <HAL_RCC_ClockConfig+0x138>
 8000db6:	380c      	subs	r0, #12
 8000db8:	4243      	negs	r3, r0
 8000dba:	4158      	adcs	r0, r3
 8000dbc:	4b23      	ldr	r3, [pc, #140]	; (8000e4c <HAL_RCC_ClockConfig+0x198>)
 8000dbe:	4240      	negs	r0, r0
 8000dc0:	4018      	ands	r0, r3
 8000dc2:	4b23      	ldr	r3, [pc, #140]	; (8000e50 <HAL_RCC_ClockConfig+0x19c>)
 8000dc4:	469c      	mov	ip, r3
 8000dc6:	4460      	add	r0, ip
 8000dc8:	4b1c      	ldr	r3, [pc, #112]	; (8000e3c <HAL_RCC_ClockConfig+0x188>)
 8000dca:	4a22      	ldr	r2, [pc, #136]	; (8000e54 <HAL_RCC_ClockConfig+0x1a0>)
 8000dcc:	685b      	ldr	r3, [r3, #4]
 8000dce:	061b      	lsls	r3, r3, #24
 8000dd0:	0f1b      	lsrs	r3, r3, #28
 8000dd2:	5cd3      	ldrb	r3, [r2, r3]
 8000dd4:	40d8      	lsrs	r0, r3
 8000dd6:	4b20      	ldr	r3, [pc, #128]	; (8000e58 <HAL_RCC_ClockConfig+0x1a4>)
 8000dd8:	6018      	str	r0, [r3, #0]
 8000dda:	2000      	movs	r0, #0
 8000ddc:	f7ff fb30 	bl	8000440 <HAL_InitTick>
 8000de0:	2000      	movs	r0, #0
 8000de2:	e77f      	b.n	8000ce4 <HAL_RCC_ClockConfig+0x30>
 8000de4:	6812      	ldr	r2, [r2, #0]
 8000de6:	0392      	lsls	r2, r2, #14
 8000de8:	d4a1      	bmi.n	8000d2e <HAL_RCC_ClockConfig+0x7a>
 8000dea:	e77a      	b.n	8000ce2 <HAL_RCC_ClockConfig+0x2e>
 8000dec:	200f      	movs	r0, #15
 8000dee:	0c9c      	lsrs	r4, r3, #18
 8000df0:	4004      	ands	r4, r0
 8000df2:	5d0c      	ldrb	r4, [r1, r4]
 8000df4:	6ae9      	ldr	r1, [r5, #44]	; 0x2c
 8000df6:	4008      	ands	r0, r1
 8000df8:	5c11      	ldrb	r1, [r2, r0]
 8000dfa:	22c0      	movs	r2, #192	; 0xc0
 8000dfc:	2080      	movs	r0, #128	; 0x80
 8000dfe:	0252      	lsls	r2, r2, #9
 8000e00:	4013      	ands	r3, r2
 8000e02:	0240      	lsls	r0, r0, #9
 8000e04:	4283      	cmp	r3, r0
 8000e06:	d001      	beq.n	8000e0c <HAL_RCC_ClockConfig+0x158>
 8000e08:	4293      	cmp	r3, r2
 8000e0a:	d00a      	beq.n	8000e22 <HAL_RCC_ClockConfig+0x16e>
 8000e0c:	4810      	ldr	r0, [pc, #64]	; (8000e50 <HAL_RCC_ClockConfig+0x19c>)
 8000e0e:	f7ff f97b 	bl	8000108 <__udivsi3>
 8000e12:	4360      	muls	r0, r4
 8000e14:	e7d8      	b.n	8000dc8 <HAL_RCC_ClockConfig+0x114>
 8000e16:	2003      	movs	r0, #3
 8000e18:	e764      	b.n	8000ce4 <HAL_RCC_ClockConfig+0x30>
 8000e1a:	6812      	ldr	r2, [r2, #0]
 8000e1c:	0192      	lsls	r2, r2, #6
 8000e1e:	d486      	bmi.n	8000d2e <HAL_RCC_ClockConfig+0x7a>
 8000e20:	e75f      	b.n	8000ce2 <HAL_RCC_ClockConfig+0x2e>
 8000e22:	480e      	ldr	r0, [pc, #56]	; (8000e5c <HAL_RCC_ClockConfig+0x1a8>)
 8000e24:	f7ff f970 	bl	8000108 <__udivsi3>
 8000e28:	4360      	muls	r0, r4
 8000e2a:	e7cd      	b.n	8000dc8 <HAL_RCC_ClockConfig+0x114>
 8000e2c:	6b52      	ldr	r2, [r2, #52]	; 0x34
 8000e2e:	03d2      	lsls	r2, r2, #15
 8000e30:	d500      	bpl.n	8000e34 <HAL_RCC_ClockConfig+0x180>
 8000e32:	e77c      	b.n	8000d2e <HAL_RCC_ClockConfig+0x7a>
 8000e34:	e755      	b.n	8000ce2 <HAL_RCC_ClockConfig+0x2e>
 8000e36:	46c0      	nop			; (mov r8, r8)
 8000e38:	40022000 	.word	0x40022000
 8000e3c:	40021000 	.word	0x40021000
 8000e40:	00001388 	.word	0x00001388
 8000e44:	fffff8ff 	.word	0xfffff8ff
 8000e48:	080012f4 	.word	0x080012f4
 8000e4c:	02625a00 	.word	0x02625a00
 8000e50:	007a1200 	.word	0x007a1200
 8000e54:	08001314 	.word	0x08001314
 8000e58:	20000000 	.word	0x20000000
 8000e5c:	02dc6c00 	.word	0x02dc6c00

08000e60 <HAL_RCC_GetSysClockFreq>:
 8000e60:	b570      	push	{r4, r5, r6, lr}
 8000e62:	b088      	sub	sp, #32
 8000e64:	4669      	mov	r1, sp
 8000e66:	4b1c      	ldr	r3, [pc, #112]	; (8000ed8 <HAL_RCC_GetSysClockFreq+0x78>)
 8000e68:	000a      	movs	r2, r1
 8000e6a:	0018      	movs	r0, r3
 8000e6c:	c870      	ldmia	r0!, {r4, r5, r6}
 8000e6e:	c270      	stmia	r2!, {r4, r5, r6}
 8000e70:	6800      	ldr	r0, [r0, #0]
 8000e72:	3310      	adds	r3, #16
 8000e74:	6010      	str	r0, [r2, #0]
 8000e76:	aa04      	add	r2, sp, #16
 8000e78:	0010      	movs	r0, r2
 8000e7a:	cb70      	ldmia	r3!, {r4, r5, r6}
 8000e7c:	c070      	stmia	r0!, {r4, r5, r6}
 8000e7e:	681b      	ldr	r3, [r3, #0]
 8000e80:	4d16      	ldr	r5, [pc, #88]	; (8000edc <HAL_RCC_GetSysClockFreq+0x7c>)
 8000e82:	6003      	str	r3, [r0, #0]
 8000e84:	200c      	movs	r0, #12
 8000e86:	686b      	ldr	r3, [r5, #4]
 8000e88:	4018      	ands	r0, r3
 8000e8a:	2808      	cmp	r0, #8
 8000e8c:	d00a      	beq.n	8000ea4 <HAL_RCC_GetSysClockFreq+0x44>
 8000e8e:	380c      	subs	r0, #12
 8000e90:	4243      	negs	r3, r0
 8000e92:	4158      	adcs	r0, r3
 8000e94:	4b12      	ldr	r3, [pc, #72]	; (8000ee0 <HAL_RCC_GetSysClockFreq+0x80>)
 8000e96:	4240      	negs	r0, r0
 8000e98:	4018      	ands	r0, r3
 8000e9a:	4b12      	ldr	r3, [pc, #72]	; (8000ee4 <HAL_RCC_GetSysClockFreq+0x84>)
 8000e9c:	469c      	mov	ip, r3
 8000e9e:	4460      	add	r0, ip
 8000ea0:	b008      	add	sp, #32
 8000ea2:	bd70      	pop	{r4, r5, r6, pc}
 8000ea4:	200f      	movs	r0, #15
 8000ea6:	0c9c      	lsrs	r4, r3, #18
 8000ea8:	4004      	ands	r4, r0
 8000eaa:	5d0c      	ldrb	r4, [r1, r4]
 8000eac:	6ae9      	ldr	r1, [r5, #44]	; 0x2c
 8000eae:	4008      	ands	r0, r1
 8000eb0:	5c11      	ldrb	r1, [r2, r0]
 8000eb2:	22c0      	movs	r2, #192	; 0xc0
 8000eb4:	2080      	movs	r0, #128	; 0x80
 8000eb6:	0252      	lsls	r2, r2, #9
 8000eb8:	4013      	ands	r3, r2
 8000eba:	0240      	lsls	r0, r0, #9
 8000ebc:	4283      	cmp	r3, r0
 8000ebe:	d001      	beq.n	8000ec4 <HAL_RCC_GetSysClockFreq+0x64>
 8000ec0:	4293      	cmp	r3, r2
 8000ec2:	d004      	beq.n	8000ece <HAL_RCC_GetSysClockFreq+0x6e>
 8000ec4:	4807      	ldr	r0, [pc, #28]	; (8000ee4 <HAL_RCC_GetSysClockFreq+0x84>)
 8000ec6:	f7ff f91f 	bl	8000108 <__udivsi3>
 8000eca:	4360      	muls	r0, r4
 8000ecc:	e7e8      	b.n	8000ea0 <HAL_RCC_GetSysClockFreq+0x40>
 8000ece:	4806      	ldr	r0, [pc, #24]	; (8000ee8 <HAL_RCC_GetSysClockFreq+0x88>)
 8000ed0:	f7ff f91a 	bl	8000108 <__udivsi3>
 8000ed4:	4360      	muls	r0, r4
 8000ed6:	e7e3      	b.n	8000ea0 <HAL_RCC_GetSysClockFreq+0x40>
 8000ed8:	080012f4 	.word	0x080012f4
 8000edc:	40021000 	.word	0x40021000
 8000ee0:	02625a00 	.word	0x02625a00
 8000ee4:	007a1200 	.word	0x007a1200
 8000ee8:	02dc6c00 	.word	0x02dc6c00

08000eec <HAL_RCC_GetPCLK1Freq>:
 8000eec:	4b04      	ldr	r3, [pc, #16]	; (8000f00 <HAL_RCC_GetPCLK1Freq+0x14>)
 8000eee:	4a05      	ldr	r2, [pc, #20]	; (8000f04 <HAL_RCC_GetPCLK1Freq+0x18>)
 8000ef0:	685b      	ldr	r3, [r3, #4]
 8000ef2:	055b      	lsls	r3, r3, #21
 8000ef4:	0f5b      	lsrs	r3, r3, #29
 8000ef6:	5cd3      	ldrb	r3, [r2, r3]
 8000ef8:	4a03      	ldr	r2, [pc, #12]	; (8000f08 <HAL_RCC_GetPCLK1Freq+0x1c>)
 8000efa:	6810      	ldr	r0, [r2, #0]
 8000efc:	40d8      	lsrs	r0, r3
 8000efe:	4770      	bx	lr
 8000f00:	40021000 	.word	0x40021000
 8000f04:	08001324 	.word	0x08001324
 8000f08:	20000000 	.word	0x20000000

08000f0c <UART_AdvFeatureConfig>:
 8000f0c:	6a43      	ldr	r3, [r0, #36]	; 0x24
 8000f0e:	b530      	push	{r4, r5, lr}
 8000f10:	07da      	lsls	r2, r3, #31
 8000f12:	d506      	bpl.n	8000f22 <UART_AdvFeatureConfig+0x16>
 8000f14:	6801      	ldr	r1, [r0, #0]
 8000f16:	4c28      	ldr	r4, [pc, #160]	; (8000fb8 <UART_AdvFeatureConfig+0xac>)
 8000f18:	684a      	ldr	r2, [r1, #4]
 8000f1a:	4022      	ands	r2, r4
 8000f1c:	6a84      	ldr	r4, [r0, #40]	; 0x28
 8000f1e:	4322      	orrs	r2, r4
 8000f20:	604a      	str	r2, [r1, #4]
 8000f22:	079a      	lsls	r2, r3, #30
 8000f24:	d506      	bpl.n	8000f34 <UART_AdvFeatureConfig+0x28>
 8000f26:	6801      	ldr	r1, [r0, #0]
 8000f28:	4c24      	ldr	r4, [pc, #144]	; (8000fbc <UART_AdvFeatureConfig+0xb0>)
 8000f2a:	684a      	ldr	r2, [r1, #4]
 8000f2c:	4022      	ands	r2, r4
 8000f2e:	6ac4      	ldr	r4, [r0, #44]	; 0x2c
 8000f30:	4322      	orrs	r2, r4
 8000f32:	604a      	str	r2, [r1, #4]
 8000f34:	075a      	lsls	r2, r3, #29
 8000f36:	d506      	bpl.n	8000f46 <UART_AdvFeatureConfig+0x3a>
 8000f38:	6801      	ldr	r1, [r0, #0]
 8000f3a:	4c21      	ldr	r4, [pc, #132]	; (8000fc0 <UART_AdvFeatureConfig+0xb4>)
 8000f3c:	684a      	ldr	r2, [r1, #4]
 8000f3e:	4022      	ands	r2, r4
 8000f40:	6b04      	ldr	r4, [r0, #48]	; 0x30
 8000f42:	4322      	orrs	r2, r4
 8000f44:	604a      	str	r2, [r1, #4]
 8000f46:	071a      	lsls	r2, r3, #28
 8000f48:	d506      	bpl.n	8000f58 <UART_AdvFeatureConfig+0x4c>
 8000f4a:	6801      	ldr	r1, [r0, #0]
 8000f4c:	4c1d      	ldr	r4, [pc, #116]	; (8000fc4 <UART_AdvFeatureConfig+0xb8>)
 8000f4e:	684a      	ldr	r2, [r1, #4]
 8000f50:	4022      	ands	r2, r4
 8000f52:	6b44      	ldr	r4, [r0, #52]	; 0x34
 8000f54:	4322      	orrs	r2, r4
 8000f56:	604a      	str	r2, [r1, #4]
 8000f58:	06da      	lsls	r2, r3, #27
 8000f5a:	d506      	bpl.n	8000f6a <UART_AdvFeatureConfig+0x5e>
 8000f5c:	6801      	ldr	r1, [r0, #0]
 8000f5e:	4c1a      	ldr	r4, [pc, #104]	; (8000fc8 <UART_AdvFeatureConfig+0xbc>)
 8000f60:	688a      	ldr	r2, [r1, #8]
 8000f62:	4022      	ands	r2, r4
 8000f64:	6b84      	ldr	r4, [r0, #56]	; 0x38
 8000f66:	4322      	orrs	r2, r4
 8000f68:	608a      	str	r2, [r1, #8]
 8000f6a:	069a      	lsls	r2, r3, #26
 8000f6c:	d506      	bpl.n	8000f7c <UART_AdvFeatureConfig+0x70>
 8000f6e:	6801      	ldr	r1, [r0, #0]
 8000f70:	4c16      	ldr	r4, [pc, #88]	; (8000fcc <UART_AdvFeatureConfig+0xc0>)
 8000f72:	688a      	ldr	r2, [r1, #8]
 8000f74:	4022      	ands	r2, r4
 8000f76:	6bc4      	ldr	r4, [r0, #60]	; 0x3c
 8000f78:	4322      	orrs	r2, r4
 8000f7a:	608a      	str	r2, [r1, #8]
 8000f7c:	065a      	lsls	r2, r3, #25
 8000f7e:	d50a      	bpl.n	8000f96 <UART_AdvFeatureConfig+0x8a>
 8000f80:	6801      	ldr	r1, [r0, #0]
 8000f82:	4d13      	ldr	r5, [pc, #76]	; (8000fd0 <UART_AdvFeatureConfig+0xc4>)
 8000f84:	684a      	ldr	r2, [r1, #4]
 8000f86:	6c04      	ldr	r4, [r0, #64]	; 0x40
 8000f88:	402a      	ands	r2, r5
 8000f8a:	4322      	orrs	r2, r4
 8000f8c:	604a      	str	r2, [r1, #4]
 8000f8e:	2280      	movs	r2, #128	; 0x80
 8000f90:	0352      	lsls	r2, r2, #13
 8000f92:	4294      	cmp	r4, r2
 8000f94:	d009      	beq.n	8000faa <UART_AdvFeatureConfig+0x9e>
 8000f96:	061b      	lsls	r3, r3, #24
 8000f98:	d506      	bpl.n	8000fa8 <UART_AdvFeatureConfig+0x9c>
 8000f9a:	6802      	ldr	r2, [r0, #0]
 8000f9c:	490d      	ldr	r1, [pc, #52]	; (8000fd4 <UART_AdvFeatureConfig+0xc8>)
 8000f9e:	6853      	ldr	r3, [r2, #4]
 8000fa0:	400b      	ands	r3, r1
 8000fa2:	6c81      	ldr	r1, [r0, #72]	; 0x48
 8000fa4:	430b      	orrs	r3, r1
 8000fa6:	6053      	str	r3, [r2, #4]
 8000fa8:	bd30      	pop	{r4, r5, pc}
 8000faa:	684a      	ldr	r2, [r1, #4]
 8000fac:	4c0a      	ldr	r4, [pc, #40]	; (8000fd8 <UART_AdvFeatureConfig+0xcc>)
 8000fae:	4022      	ands	r2, r4
 8000fb0:	6c44      	ldr	r4, [r0, #68]	; 0x44
 8000fb2:	4322      	orrs	r2, r4
 8000fb4:	604a      	str	r2, [r1, #4]
 8000fb6:	e7ee      	b.n	8000f96 <UART_AdvFeatureConfig+0x8a>
 8000fb8:	fffdffff 	.word	0xfffdffff
 8000fbc:	fffeffff 	.word	0xfffeffff
 8000fc0:	fffbffff 	.word	0xfffbffff
 8000fc4:	ffff7fff 	.word	0xffff7fff
 8000fc8:	ffffefff 	.word	0xffffefff
 8000fcc:	ffffdfff 	.word	0xffffdfff
 8000fd0:	ffefffff 	.word	0xffefffff
 8000fd4:	fff7ffff 	.word	0xfff7ffff
 8000fd8:	ff9fffff 	.word	0xff9fffff

08000fdc <HAL_UART_Init>:
 8000fdc:	b5f8      	push	{r3, r4, r5, r6, r7, lr}
 8000fde:	46ce      	mov	lr, r9
 8000fe0:	4647      	mov	r7, r8
 8000fe2:	0004      	movs	r4, r0
 8000fe4:	b580      	push	{r7, lr}
 8000fe6:	2800      	cmp	r0, #0
 8000fe8:	d036      	beq.n	8001058 <HAL_UART_Init+0x7c>
 8000fea:	6f43      	ldr	r3, [r0, #116]	; 0x74
 8000fec:	2b00      	cmp	r3, #0
 8000fee:	d02e      	beq.n	800104e <HAL_UART_Init+0x72>
 8000ff0:	2324      	movs	r3, #36	; 0x24
 8000ff2:	2101      	movs	r1, #1
 8000ff4:	6763      	str	r3, [r4, #116]	; 0x74
 8000ff6:	6823      	ldr	r3, [r4, #0]
 8000ff8:	6925      	ldr	r5, [r4, #16]
 8000ffa:	681a      	ldr	r2, [r3, #0]
 8000ffc:	69e0      	ldr	r0, [r4, #28]
 8000ffe:	438a      	bics	r2, r1
 8001000:	601a      	str	r2, [r3, #0]
 8001002:	68a2      	ldr	r2, [r4, #8]
 8001004:	6819      	ldr	r1, [r3, #0]
 8001006:	432a      	orrs	r2, r5
 8001008:	6965      	ldr	r5, [r4, #20]
 800100a:	432a      	orrs	r2, r5
 800100c:	4d90      	ldr	r5, [pc, #576]	; (8001250 <HAL_UART_Init+0x274>)
 800100e:	4302      	orrs	r2, r0
 8001010:	4029      	ands	r1, r5
 8001012:	430a      	orrs	r2, r1
 8001014:	601a      	str	r2, [r3, #0]
 8001016:	685a      	ldr	r2, [r3, #4]
 8001018:	498e      	ldr	r1, [pc, #568]	; (8001254 <HAL_UART_Init+0x278>)
 800101a:	6a25      	ldr	r5, [r4, #32]
 800101c:	400a      	ands	r2, r1
 800101e:	68e1      	ldr	r1, [r4, #12]
 8001020:	430a      	orrs	r2, r1
 8001022:	605a      	str	r2, [r3, #4]
 8001024:	69a2      	ldr	r2, [r4, #24]
 8001026:	6899      	ldr	r1, [r3, #8]
 8001028:	432a      	orrs	r2, r5
 800102a:	4d8b      	ldr	r5, [pc, #556]	; (8001258 <HAL_UART_Init+0x27c>)
 800102c:	4029      	ands	r1, r5
 800102e:	430a      	orrs	r2, r1
 8001030:	609a      	str	r2, [r3, #8]
 8001032:	4a8a      	ldr	r2, [pc, #552]	; (800125c <HAL_UART_Init+0x280>)
 8001034:	4293      	cmp	r3, r2
 8001036:	d011      	beq.n	800105c <HAL_UART_Init+0x80>
 8001038:	4a89      	ldr	r2, [pc, #548]	; (8001260 <HAL_UART_Init+0x284>)
 800103a:	4293      	cmp	r3, r2
 800103c:	d027      	beq.n	800108e <HAL_UART_Init+0xb2>
 800103e:	2300      	movs	r3, #0
 8001040:	2001      	movs	r0, #1
 8001042:	6623      	str	r3, [r4, #96]	; 0x60
 8001044:	6663      	str	r3, [r4, #100]	; 0x64
 8001046:	bc0c      	pop	{r2, r3}
 8001048:	4690      	mov	r8, r2
 800104a:	4699      	mov	r9, r3
 800104c:	bdf8      	pop	{r3, r4, r5, r6, r7, pc}
 800104e:	2270      	movs	r2, #112	; 0x70
 8001050:	5483      	strb	r3, [r0, r2]
 8001052:	f7ff f971 	bl	8000338 <HAL_UART_MspInit>
 8001056:	e7cb      	b.n	8000ff0 <HAL_UART_Init+0x14>
 8001058:	2001      	movs	r0, #1
 800105a:	e7f4      	b.n	8001046 <HAL_UART_Init+0x6a>
 800105c:	4b81      	ldr	r3, [pc, #516]	; (8001264 <HAL_UART_Init+0x288>)
 800105e:	6b1a      	ldr	r2, [r3, #48]	; 0x30
 8001060:	2303      	movs	r3, #3
 8001062:	4013      	ands	r3, r2
 8001064:	4a80      	ldr	r2, [pc, #512]	; (8001268 <HAL_UART_Init+0x28c>)
 8001066:	5cd3      	ldrb	r3, [r2, r3]
 8001068:	2280      	movs	r2, #128	; 0x80
 800106a:	0212      	lsls	r2, r2, #8
 800106c:	4290      	cmp	r0, r2
 800106e:	d100      	bne.n	8001072 <HAL_UART_Init+0x96>
 8001070:	e0ae      	b.n	80011d0 <HAL_UART_Init+0x1f4>
 8001072:	2b02      	cmp	r3, #2
 8001074:	d100      	bne.n	8001078 <HAL_UART_Init+0x9c>
 8001076:	e091      	b.n	800119c <HAL_UART_Init+0x1c0>
 8001078:	d800      	bhi.n	800107c <HAL_UART_Init+0xa0>
 800107a:	e0e4      	b.n	8001246 <HAL_UART_Init+0x26a>
 800107c:	2b04      	cmp	r3, #4
 800107e:	d042      	beq.n	8001106 <HAL_UART_Init+0x12a>
 8001080:	2b08      	cmp	r3, #8
 8001082:	d1dc      	bne.n	800103e <HAL_UART_Init+0x62>
 8001084:	6863      	ldr	r3, [r4, #4]
 8001086:	0858      	lsrs	r0, r3, #1
 8001088:	2380      	movs	r3, #128	; 0x80
 800108a:	021b      	lsls	r3, r3, #8
 800108c:	e089      	b.n	80011a2 <HAL_UART_Init+0x1c6>
 800108e:	2380      	movs	r3, #128	; 0x80
 8001090:	021b      	lsls	r3, r3, #8
 8001092:	4298      	cmp	r0, r3
 8001094:	d100      	bne.n	8001098 <HAL_UART_Init+0xbc>
 8001096:	e0c3      	b.n	8001220 <HAL_UART_Init+0x244>
 8001098:	f7ff ff28 	bl	8000eec <HAL_RCC_GetPCLK1Freq>
 800109c:	6863      	ldr	r3, [r4, #4]
 800109e:	6861      	ldr	r1, [r4, #4]
 80010a0:	085b      	lsrs	r3, r3, #1
 80010a2:	1818      	adds	r0, r3, r0
 80010a4:	f7ff f830 	bl	8000108 <__udivsi3>
 80010a8:	0400      	lsls	r0, r0, #16
 80010aa:	0c00      	lsrs	r0, r0, #16
 80010ac:	0003      	movs	r3, r0
 80010ae:	4a6f      	ldr	r2, [pc, #444]	; (800126c <HAL_UART_Init+0x290>)
 80010b0:	3b10      	subs	r3, #16
 80010b2:	4293      	cmp	r3, r2
 80010b4:	d8c3      	bhi.n	800103e <HAL_UART_Init+0x62>
 80010b6:	2200      	movs	r2, #0
 80010b8:	6823      	ldr	r3, [r4, #0]
 80010ba:	60d8      	str	r0, [r3, #12]
 80010bc:	6622      	str	r2, [r4, #96]	; 0x60
 80010be:	6662      	str	r2, [r4, #100]	; 0x64
 80010c0:	6a62      	ldr	r2, [r4, #36]	; 0x24
 80010c2:	2a00      	cmp	r2, #0
 80010c4:	d14c      	bne.n	8001160 <HAL_UART_Init+0x184>
 80010c6:	685a      	ldr	r2, [r3, #4]
 80010c8:	4969      	ldr	r1, [pc, #420]	; (8001270 <HAL_UART_Init+0x294>)
 80010ca:	400a      	ands	r2, r1
 80010cc:	212a      	movs	r1, #42	; 0x2a
 80010ce:	605a      	str	r2, [r3, #4]
 80010d0:	689a      	ldr	r2, [r3, #8]
 80010d2:	438a      	bics	r2, r1
 80010d4:	609a      	str	r2, [r3, #8]
 80010d6:	681a      	ldr	r2, [r3, #0]
 80010d8:	3929      	subs	r1, #41	; 0x29
 80010da:	430a      	orrs	r2, r1
 80010dc:	601a      	str	r2, [r3, #0]
 80010de:	2300      	movs	r3, #0
 80010e0:	67e3      	str	r3, [r4, #124]	; 0x7c
 80010e2:	f7ff f9ef 	bl	80004c4 <HAL_GetTick>
 80010e6:	6823      	ldr	r3, [r4, #0]
 80010e8:	0006      	movs	r6, r0
 80010ea:	681a      	ldr	r2, [r3, #0]
 80010ec:	0712      	lsls	r2, r2, #28
 80010ee:	d40d      	bmi.n	800110c <HAL_UART_Init+0x130>
 80010f0:	681a      	ldr	r2, [r3, #0]
 80010f2:	0752      	lsls	r2, r2, #29
 80010f4:	d439      	bmi.n	800116a <HAL_UART_Init+0x18e>
 80010f6:	2320      	movs	r3, #32
 80010f8:	2200      	movs	r2, #0
 80010fa:	6763      	str	r3, [r4, #116]	; 0x74
 80010fc:	67a3      	str	r3, [r4, #120]	; 0x78
 80010fe:	3350      	adds	r3, #80	; 0x50
 8001100:	54e2      	strb	r2, [r4, r3]
 8001102:	2000      	movs	r0, #0
 8001104:	e79f      	b.n	8001046 <HAL_UART_Init+0x6a>
 8001106:	f7ff feab 	bl	8000e60 <HAL_RCC_GetSysClockFreq>
 800110a:	e7c7      	b.n	800109c <HAL_UART_Init+0xc0>
 800110c:	4a59      	ldr	r2, [pc, #356]	; (8001274 <HAL_UART_Init+0x298>)
 800110e:	2780      	movs	r7, #128	; 0x80
 8001110:	4690      	mov	r8, r2
 8001112:	2204      	movs	r2, #4
 8001114:	4691      	mov	r9, r2
 8001116:	03bf      	lsls	r7, r7, #14
 8001118:	69dd      	ldr	r5, [r3, #28]
 800111a:	403d      	ands	r5, r7
 800111c:	d1e8      	bne.n	80010f0 <HAL_UART_Init+0x114>
 800111e:	f7ff f9d1 	bl	80004c4 <HAL_GetTick>
 8001122:	6823      	ldr	r3, [r4, #0]
 8001124:	1b80      	subs	r0, r0, r6
 8001126:	681a      	ldr	r2, [r3, #0]
 8001128:	4540      	cmp	r0, r8
 800112a:	d842      	bhi.n	80011b2 <HAL_UART_Init+0x1d6>
 800112c:	4649      	mov	r1, r9
 800112e:	4211      	tst	r1, r2
 8001130:	d0f2      	beq.n	8001118 <HAL_UART_Init+0x13c>
 8001132:	2280      	movs	r2, #128	; 0x80
 8001134:	69d9      	ldr	r1, [r3, #28]
 8001136:	0112      	lsls	r2, r2, #4
 8001138:	4211      	tst	r1, r2
 800113a:	d0ed      	beq.n	8001118 <HAL_UART_Init+0x13c>
 800113c:	621a      	str	r2, [r3, #32]
 800113e:	681a      	ldr	r2, [r3, #0]
 8001140:	494d      	ldr	r1, [pc, #308]	; (8001278 <HAL_UART_Init+0x29c>)
 8001142:	2003      	movs	r0, #3
 8001144:	400a      	ands	r2, r1
 8001146:	601a      	str	r2, [r3, #0]
 8001148:	689a      	ldr	r2, [r3, #8]
 800114a:	31a3      	adds	r1, #163	; 0xa3
 800114c:	31ff      	adds	r1, #255	; 0xff
 800114e:	438a      	bics	r2, r1
 8001150:	609a      	str	r2, [r3, #8]
 8001152:	2320      	movs	r3, #32
 8001154:	6763      	str	r3, [r4, #116]	; 0x74
 8001156:	67a3      	str	r3, [r4, #120]	; 0x78
 8001158:	67e3      	str	r3, [r4, #124]	; 0x7c
 800115a:	3350      	adds	r3, #80	; 0x50
 800115c:	54e5      	strb	r5, [r4, r3]
 800115e:	e772      	b.n	8001046 <HAL_UART_Init+0x6a>
 8001160:	0020      	movs	r0, r4
 8001162:	f7ff fed3 	bl	8000f0c <UART_AdvFeatureConfig>
 8001166:	6823      	ldr	r3, [r4, #0]
 8001168:	e7ad      	b.n	80010c6 <HAL_UART_Init+0xea>
 800116a:	4a42      	ldr	r2, [pc, #264]	; (8001274 <HAL_UART_Init+0x298>)
 800116c:	2780      	movs	r7, #128	; 0x80
 800116e:	4690      	mov	r8, r2
 8001170:	2204      	movs	r2, #4
 8001172:	4691      	mov	r9, r2
 8001174:	03ff      	lsls	r7, r7, #15
 8001176:	69dd      	ldr	r5, [r3, #28]
 8001178:	403d      	ands	r5, r7
 800117a:	d1bc      	bne.n	80010f6 <HAL_UART_Init+0x11a>
 800117c:	f7ff f9a2 	bl	80004c4 <HAL_GetTick>
 8001180:	6823      	ldr	r3, [r4, #0]
 8001182:	1b80      	subs	r0, r0, r6
 8001184:	681a      	ldr	r2, [r3, #0]
 8001186:	4540      	cmp	r0, r8
 8001188:	d813      	bhi.n	80011b2 <HAL_UART_Init+0x1d6>
 800118a:	4649      	mov	r1, r9
 800118c:	4211      	tst	r1, r2
 800118e:	d0f2      	beq.n	8001176 <HAL_UART_Init+0x19a>
 8001190:	2280      	movs	r2, #128	; 0x80
 8001192:	69d9      	ldr	r1, [r3, #28]
 8001194:	0112      	lsls	r2, r2, #4
 8001196:	4211      	tst	r1, r2
 8001198:	d0ed      	beq.n	8001176 <HAL_UART_Init+0x19a>
 800119a:	e7cf      	b.n	800113c <HAL_UART_Init+0x160>
 800119c:	6863      	ldr	r3, [r4, #4]
 800119e:	0858      	lsrs	r0, r3, #1
 80011a0:	4b36      	ldr	r3, [pc, #216]	; (800127c <HAL_UART_Init+0x2a0>)
 80011a2:	469c      	mov	ip, r3
 80011a4:	6861      	ldr	r1, [r4, #4]
 80011a6:	4460      	add	r0, ip
 80011a8:	f7fe ffae 	bl	8000108 <__udivsi3>
 80011ac:	0400      	lsls	r0, r0, #16
 80011ae:	0c00      	lsrs	r0, r0, #16
 80011b0:	e77c      	b.n	80010ac <HAL_UART_Init+0xd0>
 80011b2:	4931      	ldr	r1, [pc, #196]	; (8001278 <HAL_UART_Init+0x29c>)
 80011b4:	2003      	movs	r0, #3
 80011b6:	400a      	ands	r2, r1
 80011b8:	601a      	str	r2, [r3, #0]
 80011ba:	689a      	ldr	r2, [r3, #8]
 80011bc:	31a3      	adds	r1, #163	; 0xa3
 80011be:	31ff      	adds	r1, #255	; 0xff
 80011c0:	438a      	bics	r2, r1
 80011c2:	609a      	str	r2, [r3, #8]
 80011c4:	2320      	movs	r3, #32
 80011c6:	6763      	str	r3, [r4, #116]	; 0x74
 80011c8:	67a3      	str	r3, [r4, #120]	; 0x78
 80011ca:	3350      	adds	r3, #80	; 0x50
 80011cc:	54e5      	strb	r5, [r4, r3]
 80011ce:	e73a      	b.n	8001046 <HAL_UART_Init+0x6a>
 80011d0:	2b02      	cmp	r3, #2
 80011d2:	d034      	beq.n	800123e <HAL_UART_Init+0x262>
 80011d4:	d921      	bls.n	800121a <HAL_UART_Init+0x23e>
 80011d6:	2b04      	cmp	r3, #4
 80011d8:	d02e      	beq.n	8001238 <HAL_UART_Init+0x25c>
 80011da:	2b08      	cmp	r3, #8
 80011dc:	d000      	beq.n	80011e0 <HAL_UART_Init+0x204>
 80011de:	e72e      	b.n	800103e <HAL_UART_Init+0x62>
 80011e0:	6863      	ldr	r3, [r4, #4]
 80011e2:	0858      	lsrs	r0, r3, #1
 80011e4:	2380      	movs	r3, #128	; 0x80
 80011e6:	025b      	lsls	r3, r3, #9
 80011e8:	469c      	mov	ip, r3
 80011ea:	6861      	ldr	r1, [r4, #4]
 80011ec:	4460      	add	r0, ip
 80011ee:	f7fe ff8b 	bl	8000108 <__udivsi3>
 80011f2:	0400      	lsls	r0, r0, #16
 80011f4:	0c00      	lsrs	r0, r0, #16
 80011f6:	0003      	movs	r3, r0
 80011f8:	4a1c      	ldr	r2, [pc, #112]	; (800126c <HAL_UART_Init+0x290>)
 80011fa:	3b10      	subs	r3, #16
 80011fc:	4293      	cmp	r3, r2
 80011fe:	d900      	bls.n	8001202 <HAL_UART_Init+0x226>
 8001200:	e71d      	b.n	800103e <HAL_UART_Init+0x62>
 8001202:	230f      	movs	r3, #15
 8001204:	0002      	movs	r2, r0
 8001206:	0700      	lsls	r0, r0, #28
 8001208:	439a      	bics	r2, r3
 800120a:	0f40      	lsrs	r0, r0, #29
 800120c:	4310      	orrs	r0, r2
 800120e:	2200      	movs	r2, #0
 8001210:	6823      	ldr	r3, [r4, #0]
 8001212:	60d8      	str	r0, [r3, #12]
 8001214:	6622      	str	r2, [r4, #96]	; 0x60
 8001216:	6662      	str	r2, [r4, #100]	; 0x64
 8001218:	e752      	b.n	80010c0 <HAL_UART_Init+0xe4>
 800121a:	2b00      	cmp	r3, #0
 800121c:	d000      	beq.n	8001220 <HAL_UART_Init+0x244>
 800121e:	e70e      	b.n	800103e <HAL_UART_Init+0x62>
 8001220:	f7ff fe64 	bl	8000eec <HAL_RCC_GetPCLK1Freq>
 8001224:	6863      	ldr	r3, [r4, #4]
 8001226:	0040      	lsls	r0, r0, #1
 8001228:	085b      	lsrs	r3, r3, #1
 800122a:	18c0      	adds	r0, r0, r3
 800122c:	6861      	ldr	r1, [r4, #4]
 800122e:	f7fe ff6b 	bl	8000108 <__udivsi3>
 8001232:	0400      	lsls	r0, r0, #16
 8001234:	0c00      	lsrs	r0, r0, #16
 8001236:	e7de      	b.n	80011f6 <HAL_UART_Init+0x21a>
 8001238:	f7ff fe12 	bl	8000e60 <HAL_RCC_GetSysClockFreq>
 800123c:	e7f2      	b.n	8001224 <HAL_UART_Init+0x248>
 800123e:	6863      	ldr	r3, [r4, #4]
 8001240:	0858      	lsrs	r0, r3, #1
 8001242:	4b0f      	ldr	r3, [pc, #60]	; (8001280 <HAL_UART_Init+0x2a4>)
 8001244:	e7d0      	b.n	80011e8 <HAL_UART_Init+0x20c>
 8001246:	2b00      	cmp	r3, #0
 8001248:	d100      	bne.n	800124c <HAL_UART_Init+0x270>
 800124a:	e725      	b.n	8001098 <HAL_UART_Init+0xbc>
 800124c:	e6f7      	b.n	800103e <HAL_UART_Init+0x62>
 800124e:	46c0      	nop			; (mov r8, r8)
 8001250:	efff69f3 	.word	0xefff69f3
 8001254:	ffffcfff 	.word	0xffffcfff
 8001258:	fffff4ff 	.word	0xfffff4ff
 800125c:	40013800 	.word	0x40013800
 8001260:	40004400 	.word	0x40004400
 8001264:	40021000 	.word	0x40021000
 8001268:	0800132c 	.word	0x0800132c
 800126c:	0000ffef 	.word	0x0000ffef
 8001270:	ffffb7ff 	.word	0xffffb7ff
 8001274:	01ffffff 	.word	0x01ffffff
 8001278:	fffffe5f 	.word	0xfffffe5f
 800127c:	007a1200 	.word	0x007a1200
 8001280:	00f42400 	.word	0x00f42400

08001284 <__libc_init_array>:
 8001284:	b570      	push	{r4, r5, r6, lr}
 8001286:	2600      	movs	r6, #0
 8001288:	4d0c      	ldr	r5, [pc, #48]	; (80012bc <__libc_init_array+0x38>)
 800128a:	4c0d      	ldr	r4, [pc, #52]	; (80012c0 <__libc_init_array+0x3c>)
 800128c:	1b64      	subs	r4, r4, r5
 800128e:	10a4      	asrs	r4, r4, #2
 8001290:	42a6      	cmp	r6, r4
 8001292:	d109      	bne.n	80012a8 <__libc_init_array+0x24>
 8001294:	2600      	movs	r6, #0
 8001296:	f000 f821 	bl	80012dc <_init>
 800129a:	4d0a      	ldr	r5, [pc, #40]	; (80012c4 <__libc_init_array+0x40>)
 800129c:	4c0a      	ldr	r4, [pc, #40]	; (80012c8 <__libc_init_array+0x44>)
 800129e:	1b64      	subs	r4, r4, r5
 80012a0:	10a4      	asrs	r4, r4, #2
 80012a2:	42a6      	cmp	r6, r4
 80012a4:	d105      	bne.n	80012b2 <__libc_init_array+0x2e>
 80012a6:	bd70      	pop	{r4, r5, r6, pc}
 80012a8:	00b3      	lsls	r3, r6, #2
 80012aa:	58eb      	ldr	r3, [r5, r3]
 80012ac:	4798      	blx	r3
 80012ae:	3601      	adds	r6, #1
 80012b0:	e7ee      	b.n	8001290 <__libc_init_array+0xc>
 80012b2:	00b3      	lsls	r3, r6, #2
 80012b4:	58eb      	ldr	r3, [r5, r3]
 80012b6:	4798      	blx	r3
 80012b8:	3601      	adds	r6, #1
 80012ba:	e7f2      	b.n	80012a2 <__libc_init_array+0x1e>
 80012bc:	08001330 	.word	0x08001330
 80012c0:	08001330 	.word	0x08001330
 80012c4:	08001330 	.word	0x08001330
 80012c8:	08001334 	.word	0x08001334

080012cc <memset>:
 80012cc:	0003      	movs	r3, r0
 80012ce:	1812      	adds	r2, r2, r0
 80012d0:	4293      	cmp	r3, r2
 80012d2:	d100      	bne.n	80012d6 <memset+0xa>
 80012d4:	4770      	bx	lr
 80012d6:	7019      	strb	r1, [r3, #0]
 80012d8:	3301      	adds	r3, #1
 80012da:	e7f9      	b.n	80012d0 <memset+0x4>

080012dc <_init>:
 80012dc:	b5f8      	push	{r3, r4, r5, r6, r7, lr}
 80012de:	46c0      	nop			; (mov r8, r8)
 80012e0:	bcf8      	pop	{r3, r4, r5, r6, r7}
 80012e2:	bc08      	pop	{r3}
 80012e4:	469e      	mov	lr, r3
 80012e6:	4770      	bx	lr

080012e8 <_fini>:
 80012e8:	b5f8      	push	{r3, r4, r5, r6, r7, lr}
 80012ea:	46c0      	nop			; (mov r8, r8)
 80012ec:	bcf8      	pop	{r3, r4, r5, r6, r7}
 80012ee:	bc08      	pop	{r3}
 80012f0:	469e      	mov	lr, r3
 80012f2:	4770      	bx	lr
